(lp1
(lp2
(lp3
F0.088780618678517331
aF0.44931949984429931
aF0.28932377669608272
aF0.044552327062120159
aF0.75041524454969133
aF0.86579451071213065
aF0.075594221781333154
aF0.71765473938809055
aF0.99308639611322092
aF0.084156783786851583
aF0.56939030036002947
aF0.069615526326941624
aF0.096756240940332139
aF0.10132313673541798
aF0.066297608237659622
aF0.10575534582370641
aF0.19149916920327828
aF0.097866388643353119
aa(lp4
F0.095506058213981671
aF0.44833439946881026
aF0.31032217985677596
aF0.044552327062120159
aF0.78346162898299876
aF0.99046218254431417
aF0.078741972587308667
aF0.72462887262091247
aF0.99515605793628192
aF0.1073302977803496
aF0.51941107072362624
aF0.070007758973516243
aF0.11871174755887426
aF0.096069996944731062
aF0.06991008775937764
aF0.090649170339739765
aF0.11392163195315677
aF0.098183326589858733
aa(lp5
F0.101968966519982
aF0.44962497874571172
aF0.30184274212283557
aF0.052993721892358236
aF0.75752081132555271
aF0.9896322716679351
aF0.060559250908069406
aF0.73141017382405782
aF0.99004950506686917
aF0.12171334536194155
aF0.52019576515885402
aF0.068756923694116567
aF0.12437143931311409
aF0.077336688401242762
aF0.066018721010543041
aF0.13600615000000743
aF0.20822432246831485
aF0.098183326589858733
aa(lp6
F0.095269298465671615
aF0.44502902718689169
aF0.29440644430471236
aF0.052993721892358236
aF0.75752081132555271
aF0.98389664011722267
aF0.068344403190779168
aF0.72664447601152471
aF0.99079057410204041
aF0.086207874568189194
aF0.51542249791930073
aF0.068449783372366388
aF0.12946439872510096
aF0.081474898576391896
aF0.064023634649567535
aF0.13600615000000743
aF0.20822432246831485
aF0.069578059991748334
aa(lp7
F0.10476198405206316
aF0.41395510964301446
aF0.29707616849900997
aF0.1170912677907026
aF0.76109894667391975
aF0.98389664011722267
aF0.093870543957722791
aF0.69603124182876352
aF0.99079057410204041
aF0.086253441970868941
aF0.51536403625298188
aF0.06819957556994044
aF0.12946439872510096
aF0.078914832073614272
aF0.066643985998199207
aF0.099458415914100817
aF0.12085764518322803
aF0.069578059991748334
aa(lp8
F0.11555505450228493
aF0.40105173532043203
aF0.29882728063056258
aF0.23257325990759958
aF0.76109894667391975
aF0.98683323858131167
aF0.095752722710825938
aF0.70715981486598756
aF0.99088681879198426
aF0.085967442902341276
aF0.50018506853687417
aF0.069329074655044953
aF0.14626795671691889
aF0.060863323038419424
aF0.067052747814958458
aF0.10276299799328911
aF0.10281586611171127
aF0.070372765086963968
aa(lp9
F0.10625581214748578
aF0.40410327411009145
aF0.2994395233185011
aF0.18631336055469783
aF0.76516895748633373
aF0.98683323858131167
aF0.086064604053975202
aF0.69807515166533207
aF0.99200421333440414
aF0.087911909214935399
aF0.50320572336945324
aF0.068756923694116567
aF0.10845455957119779
aF0.049056909547256597
aF0.066805281335950095
aF0.10276299799328911
aF0.11826730508570688
aF0.070372765086963968
aa(lp10
F0.098047387350451765
aF0.39539208950861066
aF0.29975141519006904
aF0.18631336055469783
aF0.78026672665557184
aF0.99390529119000326
aF0.10806000623652276
aF0.70359995113346174
aF0.99205390577458885
aF0.095693183518200678
aF0.50426537759024193
aF0.068374501229122031
aF0.090177149552479741
aF0.047295687667861255
aF0.067253137600467527
aF0.10186547986111952
aF0.11826730508570688
aF0.067767436882033988
aa(lp11
F0.10668101777844874
aF0.41673182114960722
aF0.3001798346962703
aF0.080379339999718191
aF0.76645989888226729
aF0.99000238748685421
aF0.09673856057989394
aF0.71800503949877514
aF0.99157525849666495
aF0.10821351564692265
aF0.50629011791876399
aF0.069394765143672904
aF0.098105063327863951
aF0.078396742109703405
aF0.067597358028633925
aF0.11074250622179174
aF0.10114483029411275
aF0.070890219244016839
aa(lp12
F0.12643205607893446
aF0.41024132523852364
aF0.30025738978619038
aF0.080379339999718191
aF0.76645989888226729
aF0.98663797218836058
aF0.10699497786366494
aF0.71020684909566545
aF0.99116941079722642
aF0.13168100682087219
aF0.52051992912208023
aF0.069824187662586995
aF0.14080510947433542
aF0.083542294727795341
aF0.067607195938065787
aF0.11074250622179174
aF0.10114483029411275
aF0.072291222090802618
aa(lp13
F0.14946641410471051
aF0.38875123118392435
aF0.29923404919037488
aF0.28220949271452689
aF0.7594026537181241
aF0.98663797218836058
aF0.12525839054850796
aF0.70021842066320872
aF0.99181676407471797
aF0.13984856484395142
aF0.5090566186722093
aF0.069447865443331397
aF0.15891606048768431
aF0.079950310096517443
aF0.066663614304725213
aF0.12271811462260368
aF0.091821493247891531
aF0.072291222090802618
aa(lp14
F0.12390102784926604
aF0.41310229560518708
aF0.29793749721927221
aF0.13596314189763889
aF0.7594026537181241
aF0.99208199544054076
aF0.099579474637622567
aF0.71397750083514444
aF0.99053188073420484
aF0.095685472977686967
aF0.51542249791930073
aF0.068756923694116567
aF0.14468200873646872
aF0.11273949693562835
aF0.065808593356091655
aF0.12271811462260368
aF0.091821493247891531
aF0.069354321010820827
aa(lp15
F0.11671768139388497
aF0.42461698921591734
aF0.29761871597281631
aF0.13596314189763889
aF0.75403093402610866
aF0.99208199544054076
aF0.098757594366043977
aF0.72348964711051589
aF0.989506025580416
aF0.11134468089185591
aF0.51542249791930073
aF0.068756923694116567
aF0.1249411124730683
aF0.091533906974258991
aF0.067114653107962219
aF0.13728697339889304
aF0.12704246307242018
aF0.069354321010820827
aa(lp16
F0.14709704273692797
aF0.41891135288245379
aF0.29993700995919492
aF0.28417687991953366
aF0.75403093402610866
aF0.9932147961411899
aF0.14584402631586157
aF0.71212045501577992
aF0.989506025580416
aF0.13215205998573448
aF0.53007760847629803
aF0.068908805767185388
aF0.13805057739034443
aF0.091533906974258991
aF0.067114653107962219
aF0.13728697339889304
aF0.12704246307242018
aF0.069781267345432149
aa(lp17
F0.14719008854588927
aF0.43956865323217714
aF0.3014552630340579
aF0.29030521465193082
aF0.81505933627396798
aF0.9932147961411899
aF0.11903133996078724
aF0.71905416330182437
aF0.99451046479211891
aF0.14754370976298781
aF0.53007760847629803
aF0.068472224996960179
aF0.13805057739034443
aF0.11234723485395549
aF0.066542202146868373
aF0.11490795487374797
aF0.055855414502492463
aF0.069781267345432149
aaa(lp18
(lp19
F0.11401213997500428
aF0.43087500099779896
aF0.28364118261037391
aF0.18754684530912566
aF0.7626405528964294
aF0.8810091655823391
aF0.097288042852181567
aF0.71223077197578688
aF0.99122940584787278
aF0.1020363701330189
aF0.53079561325305269
aF0.068743668478715159
aF0.11735109575547281
aF0.073602423075433562
aF0.065937650057721231
aF0.11662947157109763
aF0.20494891626146744
aF0.072794899920301845
aa(lp20
F0.090815681533827963
aF0.40808807895398114
aF0.29978635862163255
aF0.18754684530912566
aF0.7626405528964294
aF0.98736034247984761
aF0.074899141752909432
aF0.70805181670565998
aF0.98977422050584074
aF0.073817616015156282
aF0.539616261744578
aF0.06873041326331375
aF0.091285615073789239
aF0.075443558180337586
aF0.068561287774136143
aF0.1058757142197915
aF0.087791752518079511
aF0.075855909266166824
aa(lp21
F0.10863059286664936
aF0.41137747572289995
aF0.29926782447079903
aF0.22371692670910742
aF0.7893382357905897
aF0.98736034247984761
aF0.093809078157123527
aF0.70973045615988306
aF0.99002329317128979
aF0.11292414363471236
aF0.54593630298843754
aF0.068822683851402194
aF0.11478466466381348
aF0.067060309593475378
aF0.068414889935796169
aF0.074488984004234093
aF0.054306443678277694
aF0.075855909266166824
aa(lp22
F0.12804954769751317
aF0.4183366998497462
aF0.30407734039315532
aF0.10142166462387271
aF0.75062062283708186
aF0.99425056975236015
aF0.1236114679550217
aF0.71478810397878367
aF0.99299578977339598
aF0.14738586225675593
aF0.5419326043974344
aF0.07069044452554199
aF0.1240584838857629
aF0.081654984320101695
aF0.067293884676353194
aF0.10486565822421984
aF0.11173529302497667
aF0.088813823308513451
aa(lp23
F0.12803796724167871
aF0.40852265302244128
aF0.30313367309932215
aF0.10142166462387271
aF0.75062062283708186
aF0.99464830432419959
aF0.075214254494629845
aF0.67877607464303236
aF0.99243422940768544
aF0.11186418429850477
aF0.50668512701325585
aF0.069383765633354827
aF0.16514499882423042
aF0.077704734415532967
aF0.066241944401930819
aF0.14914274979496475
aF0.19990174160004617
aF0.088813823308513451
aa(lp24
F0.11571575393973013
aF0.41904473295825639
aF0.29973469608178893
aF0.12162486372864975
aF0.78184525845820196
aF0.99464830432419959
aF0.065339896459983338
aF0.70069692174597065
aF0.99411712738232094
aF0.10813175358612169
aF0.51542249791930073
aF0.068904556009246623
aF0.11846948748409308
aF0.052066780911150412
aF0.06589887137337451
aF0.14914274979496475
aF0.19990174160004617
aF0.065751804458263119
aa(lp25
F0.10012988520884747
aF0.44060378211636675
aF0.30178562374135409
aF0.098247676656441477
aF0.73924024741876937
aF0.99665864849619745
aF0.049653362437758947
aF0.73703626325072902
aF0.99464268200842665
aF0.10667531966255327
aF0.52499179839431809
aF0.068756923694116567
aF0.11315184417177307
aF0.10004193133307564
aF0.065600714580528838
aF0.1489977093358538
aF0.17643936605990879
aF0.076845044517358546
aa(lp26
F0.11575402432512388
aF0.42108018382358542
aF0.30062352424755101
aF0.098247676656441477
aF0.73924024741876937
aF0.99497524913433033
aF0.12333345038154292
aF0.73111132418619573
aF0.99385184523546111
aF0.12238756543537062
aF0.51542249791930073
aF0.068756923694116567
aF0.12430101027941109
aF0.057045403980144557
aF0.06474450861035716
aF0.1489977093358538
aF0.17643936605990879
aF0.076845044517358546
aa(lp27
F0.13360615091713582
aF0.39420745140847113
aF0.29877421742473037
aF0.24617489660260164
aF0.76622209375206252
aF0.99467102513481331
aF0.13394338038876102
aF0.70677896008462049
aF0.99324056189800392
aF0.13649177052832867
aF0.50945011471941537
aF0.069158000870986336
aF0.12549301687349482
aF0.054112177592852778
aF0.065463203602744685
aF0.11273582868202262
aF0.073643638368414324
aF0.06490756703285197
aa(lp28
F0.12268450661463209
aF0.41994747957888473
aF0.29723777008739199
aF0.19289146737582116
aF0.76622209375206252
aF0.99253232515926326
aF0.096584816846681437
aF0.70042196332937501
aF0.99194382641268186
aF0.11969252160289083
aF0.53057120868193597
aF0.068756923694116567
aF0.12782030349404144
aF0.078938184038987655
aF0.065150234405946097
aF0.11764492015732411
aF0.11299449504783607
aF0.06490756703285197
aa(lp29
F0.12266048118766357
aF0.42122689858059548
aF0.29655028554132434
aF0.19289146737582116
aF0.76571618304483879
aF0.99253232515926326
aF0.08430958469493835
aF0.72000339240884892
aF0.99169748687982773
aF0.12685877519125938
aF0.52875379989656146
aF0.068756923694116567
aF0.1315699292691726
aF0.077476881528974029
aF0.065075993684164349
aF0.11764492015732411
aF0.11299449504783607
aF0.062144137530196042
aa(lp30
F0.14195399305322964
aF0.35637178812305031
aF0.29864858541912842
aF0.32691632456109032
aF0.76571618304483879
aF0.9962856576892285
aF0.17180827526772663
aF0.69013386191649717
aF0.9935468126312651
aF0.15652076961916889
aF0.52875379989656146
aF0.069520037097519707
aF0.12775429921026984
aF0.050097851500866555
aF0.065548464936107595
aF0.078972823267530717
aF0.033455126697254214
aF0.062144137530196042
aaa(lp31
(lp32
F0.10104965078130504
aF0.43675669248577681
aF0.31739422855933458
aF0.11994296313477604
aF0.77654618260685615
aF0.99260934129355305
aF0.076941315501400653
aF0.71655502268021587
aF0.99093057882128477
aF0.095584000386395099
aF0.55697150949826357
aF0.068756923694116567
aF0.10421405343145684
aF0.091910527043267243
aF0.068939898275002715
aF0.11734318846802444
aF0.11838709141403289
aF0.19022621556760505
aa(lp33
F0.094192095799088132
aF0.44729772942415713
aF0.29599564575293275
aF0.030986019480426785
aF0.80544361492591676
aF0.97697674716205829
aF0.040220133165005667
aF0.7221098776687509
aF0.99111906331511168
aF0.11723496009858743
aF0.51542249791930073
aF0.068756923694116567
aF0.1163540576402137
aF0.077549855281423524
aF0.065300824889133025
aF0.10350301155428199
aF0.16658929042108053
aF0.068225606895897239
aa(lp34
F0.10078328378871554
aF0.42907916663260476
aF0.29794678113696405
aF0.030986019480426785
aF0.79909194903778957
aF0.97697674716205829
aF0.092602183759679435
aF0.71317923831859409
aF0.99481392390004098
aF0.11571857475211562
aF0.51542249791930073
aF0.068793119396262967
aF0.10756249543993596
aF0.046094654792139235
aF0.066600938348857636
aF0.095974040573504282
aF0.16658929042108053
aF0.068318315383816428
aa(lp35
F0.10744713553275939
aF0.43327959581691239
aF0.29720018257098058
aF0.049352376302423756
aF0.7990800624443406
aF0.98288137891667682
aF0.12400977857558093
aF0.72017107025477933
aF0.99113358274726038
aF0.11330008424552056
aF0.52009921274946436
aF0.068793119396262967
aF0.11921778211692297
aF0.074287742224361686
aF0.066216251059685594
aF0.094102837942770384
aF0.12885613022261569
aF0.068318315383816428
aa(lp36
F0.15092059942714248
aF0.44260652718872112
aF0.29801031716008836
aF0.049352376302423756
aF0.74801585124484815
aF0.98288137891667682
aF0.15318879498929738
aF0.69718523102609231
aF0.99339278592425406
aF0.15753409826889203
aF0.54847990097125443
aF0.069387835491260069
aF0.15340240756055287
aF0.10860265691402322
aF0.066425810016262479
aF0.15059306748113221
aF0.17827047037364493
aF0.069525143769471554
aa(lp37
F0.16463694631230147
aF0.41205273719434693
aF0.30058856263796901
aF0.21493020579936828
aF0.74801585124484815
aF0.99418182949519462
aF0.18378033020455514
aF0.68771814268887055
aF0.99348846128301471
aF0.15590959715126873
aF0.53951532172268801
aF0.07007841995040541
aF0.15512786529956937
aF0.094016501635248828
aF0.066386274153529656
aF0.15059306748113221
aF0.17827047037364493
aF0.069525143769471554
aa(lp38
F0.11432558844532731
aF0.41180732833383887
aF0.29998184838622444
aF0.17303899910552892
aF0.79050706472098964
aF0.99418182949519462
aF0.1082279203470132
aF0.70591094736892546
aF0.9933954783651755
aF0.12554025807386038
aF0.53877263426953215
aF0.069366107714530265
aF0.11890302626775573
aF0.083341416064671173
aF0.066175586851278057
aF0.082956551146144697
aF0.064088820316626341
aF0.066241916258028277
aa(lp39
F0.11166854138340832
aF0.43774629736884119
aF0.29917262640231235
aF0.17303899910552892
aF0.78835074107642988
aF0.99463651316770207
aF0.10786887369583217
aF0.71492747180190519
aF0.99238666507948581
aF0.11951201691746689
aF0.56934802011402819
aF0.069028159506869316
aF0.11147359670326565
aF0.09955785761849241
aF0.065531260358253587
aF0.11019359505150347
aF0.076554629596120125
aF0.066241916258028277
aa(lp40
F0.11945936816153857
aF0.42280844566845255
aF0.29718766672064911
aF0.18111998063468071
aF0.78835074107642988
aF0.99389134617008801
aF0.11896263697198767
aF0.70428684329833291
aF0.99159821068356735
aF0.12571310459190677
aF0.51542249791930073
aF0.068756923694116567
aF0.11862524821742351
aF0.091965620929755978
aF0.065042715839703641
aF0.11019359505150347
aF0.076554629596120125
aF0.063880486135858019
aa(lp41
F0.1167503285901704
aF0.40224676790617642
aF0.29819633001165224
aF0.18111998063468071
aF0.7994461434431952
aF0.98215466664438533
aF0.099855270964733733
aF0.70428684329833291
aF0.99052975521485975
aF0.11392077165844054
aF0.50902228739723965
aF0.069943921334088652
aF0.11318437796319639
aF0.058993341664060193
aF0.066508726333379772
aF0.1154112495755612
aF0.086053674798487023
aF0.068689613126531435
aa(lp42
F0.11792390809058198
aF0.4249458737666344
aF0.29921817314064036
aF0.13757810580366545
aF0.7994461434431952
aF0.98215466664438533
aF0.096100988337266963
aF0.72155249522592424
aF0.99086459187963083
aF0.11430946174212268
aF0.51747144706911741
aF0.070200865634298587
aF0.11230419682673029
aF0.058666871585431643
aF0.066059977422602778
aF0.1154112495755612
aF0.086053674798487023
aF0.068689613126531435
aa(lp43
F0.10288486858159304
aF0.46655765004701794
aF0.30409962997760037
aF0.048760692581770619
aF0.80097375286244732
aF0.99397030398951236
aF0.072900107141528447
aF0.73773997902907595
aF0.99515605793628192
aF0.12865747334104927
aF0.52251462016119699
aF0.069184243384097122
aF0.10914512082454533
aF0.11974594373519361
aF0.065683548892464652
aF0.10365476842502142
aF0.11284735244794739
aF0.092602827988817887
aa(lp44
F0.084618665088724981
aF0.4867005847179931
aF0.30841924332450255
aF0.048760692581770619
aF0.80097375286244732
aF0.99416592872347198
aF0.068626998814325935
aF0.73773997902907595
aF0.99515605793628192
aF0.098837265649166714
aF0.58770311970566758
aF0.069184243384097122
aF0.102333175682635
aF0.12406988510665726
aF0.065957811215202125
aF0.09937238447614144
aF0.11284735244794739
aF0.092602827988817887
aaa(lp45
(lp46
F0.12438037472520874
aF0.43160065934259773
aF0.23720773729142691
aF0.21005515672497438
aF0.76524609785065911
aF0.51955608761496097
aF0.12112325576826116
aF0.72834551981102569
aF0.99379217053321867
aF0.12133997104296289
aF0.5221592935599082
aF0.067871742688170755
aF0.12550037168165953
aF0.079938027757087582
aF0.065287983075373146
aF0.11050838824308173
aF0.12549246301915931
aF0.064074510447537522
aa(lp47
F0.1340939372291364
aF0.42648499687786845
aF0.29941872364221472
aF0.24064510548857215
aF0.77729174204581641
aF0.99015465515991141
aF0.12112325576826116
aF0.70714679267379632
aF0.99197345253305858
aF0.12209987051424133
aF0.5264809087124751
aF0.068374053444842389
aF0.11859984116289629
aF0.10073127629172199
aF0.066951527005134612
aF0.15560421828723328
aF0.16528313317729457
aF0.068406452229975545
aa(lp48
F0.12650633890610014
aF0.39706290457549198
aF0.29836206685218802
aF0.20595922065662212
aF0.71737235709137925
aF0.98983622770468493
aF0.093950105719905641
aF0.67069293102180105
aF0.99139925263690132
aF0.12209987051424133
aF0.54361370489779348
aF0.068374053444842389
aF0.11400632629136589
aF0.097884044927132388
aF0.069002704159539144
aF0.15560421828723328
aF0.16528313317729457
aF0.069274120473943795
aa(lp49
F0.11987707845150672
aF0.40825420893135445
aF0.29795408414973062
aF0.16258900955815106
aF0.71737235709137925
aF0.98983622770468493
aF0.085002742376572432
aF0.71562607779336085
aF0.99120484172536216
aF0.1024750781390059
aF0.53103985981898205
aF0.067754114756824496
aF0.13247813742228473
aF0.084895955203666051
aF0.066615764953336723
aF0.1399113610801728
aF0.13935658727681313
aF0.069274120473943795
aa(lp50
F0.12618539825187786
aF0.41443456571783954
aF0.29838153486768337
aF0.16258900955815106
aF0.74029866117639975
aF0.99333693401482803
aF0.11925467724070182
aF0.72729933560293136
aF0.99121338604912967
aF0.10935389478489425
aF0.53761984178172151
aF0.068182313611568304
aF0.1296666555070696
aF0.060967609030916976
aF0.066909335137792153
aF0.1399113610801728
aF0.13935658727681313
aF0.066978760418558381
aa(lp51
F0.13281373274358757
aF0.38754391072242111
aF0.29926601896693733
aF0.23599844531369224
aF0.74029866117639975
aF0.99489285936593808
aF0.14442908617533434
aF0.71249101174796603
aF0.99224786438444612
aF0.14196615059782319
aF0.53552523519106199
aF0.068166281930672812
aF0.12913492630280454
aF0.058571336442058947
aF0.067432465667792818
aF0.090926006545538424
aF0.063396995782359383
aF0.064320253099575064
aa(lp52
F0.13374963143648305
aF0.39646939834703249
aF0.29939060942609358
aF0.28455716207920645
aF0.79737518109664696
aF0.99162037794613322
aF0.14811032461223611
aF0.70683796247983566
aF0.99262860690073951
aF0.13079804828051861
aF0.49401095151603047
aF0.069472241984194619
aF0.12856972935471103
aF0.05320831095531732
aF0.067386404784117823
aF0.096414913431686289
aF0.076353392515326052
aF0.065386899663753051
aa(lp53
F0.09976920140574394
aF0.40349419439854795
aF0.29758512149785993
aF0.12652470075899211
aF0.76610405544950921
aF0.98864376297513079
aF0.069811616583798169
aF0.70300627461665
aF0.99005056785504919
aF0.10429564359022912
aF0.50895626318560849
aF0.068756923694116567
aF0.10754263281320856
aF0.059905377030149323
aF0.067500340450147564
aF0.096414913431686289
aF0.12261248904685262
aF0.068191955522060255
aa(lp54
F0.089336293687698159
aF0.41632093681602145
aF0.29688702337739648
aF0.12652470075899211
aF0.76610405544950921
aF0.98704735829009005
aF0.0555280813101455
aF0.71495826599640722
aF0.98713875774841497
aF0.086943569922266914
aF0.52059050670109852
aF0.068756923694116567
aF0.10456928657545711
aF0.087287875252666694
aF0.069084177470425695
aF0.092063731187844278
aF0.12261248904685262
aF0.068191955522060255
aa(lp55
F0.11335370133652845
aF0.40333440205985699
aF0.29867881258414875
aF0.22894909038269706
aF0.74959147668493598
aF0.98704735829009005
aF0.083875909415822958
aF0.7045695963500469
aF0.99226893048069953
aF0.10854355262359243
aF0.49110084784446922
aF0.068364675119835031
aF0.1064258936585869
aF0.1030120400858508
aF0.069477908543372269
aF0.14736088418685664
aF0.14711767991251021
aF0.067830628255205652
aa(lp56
F0.11021124058724135
aF0.39438345243637091
aF0.29869130460528898
aF0.21628239529175788
aF0.74959147668493598
aF0.99055719235573458
aF0.081088601732360599
aF0.68583831573254272
aF0.99226893048069953
aF0.090160110633528287
aF0.53370712028651546
aF0.068364675119835031
aF0.11281385922932349
aF0.062657015551591561
aF0.066548535089404642
aF0.14736088418685664
aF0.14711767991251021
aF0.066835661678151359
aa(lp57
F0.099156096807442945
aF0.40333154458793824
aF0.29908522718003672
aF0.16584929954527214
aF0.77162603519182693
aF0.98775363979505304
aF0.082581267966693322
aF0.72547534992923801
aF0.99428591194513638
aF0.094281419059928581
aF0.51715987064630342
aF0.068671336303512145
aF0.11885925454247503
aF0.049199676717926175
aF0.067222897577313978
aF0.082134286151377855
aF0.077198135390786474
aF0.065641019205036205
aa(lp58
F0.10957474537368006
aF0.42148397376060798
aF0.30089274577401398
aF0.16584929954527214
aF0.78789182273990022
aF0.98775363979505304
aF0.098771139055319479
aF0.72547534992923801
aF0.99428591194513638
aF0.10941252247335957
aF0.51626761624696527
aF0.06889313651030006
aF0.12346503706859457
aF0.072907833614345968
aF0.069762425035111555
aF0.091096697800577636
aF0.077198135390786474
aF0.07033223955803429
aa(lp59
F0.10276830899844652
aF0.40720916765984122
aF0.30051011586822529
aF0.15810054657775371
aF0.78789182273990022
aF0.98838909022015842
aF0.084474219608662526
aF0.72057680022632409
aF0.99174238328704367
aF0.094601892185542782
aF0.55377343147115488
aF0.06879383941058885
aF0.12276280021348651
aF0.073769973080477003
aF0.067272260848943374
aF0.091096697800577636
aF0.057120151324682629
aF0.07033223955803429
aa(lp60
F0.1127369258646532
aF0.42298833974013411
aF0.29925191605803669
aF0.15810054657775371
aF0.7529871037940925
aF0.99511763715060153
aF0.072159502090700156
aF0.68635173214791589
aF0.99260826026796645
aF0.11544377028963944
aF0.51542249791930073
aF0.068756923694116567
aF0.12107445611663201
aF0.13380211358966018
aF0.065821949577138578
aF0.14519494631294927
aF0.13210313303410631
aF0.067675439123218939
aa(lp61
F0.14153213152000085
aF0.43152151078549095
aF0.30005764500485999
aF0.16614614605505318
aF0.7529871037940925
aF0.99511763715060153
aF0.15093787139923454
aF0.69101068058926396
aF0.99285695969709187
aF0.13338015513751128
aF0.49459867880427744
aF0.068127098666677419
aF0.13183012087583199
aF0.16302197500709029
aF0.065707303898751623
aF0.14519494631294927
aF0.13210313303410631
aF0.068688958840030651
aa(lp62
F0.14896924786139215
aF0.35556774839803468
aF0.30172102957293723
aF0.35365110243655173
aF0.79827429387804694
aF0.99556911141686655
aF0.16573961699360618
aF0.68990547288677084
aF0.99237869245391963
aF0.14240031744533332
aF0.45161171546858941
aF0.068693792946272259
aF0.13183012087583199
aF0
aF0.0677503472938666
aF0.090401222662210123
aF0.038173262402601313
aF0.068688958840030651
aaa(lp63
(lp64
F0.075907104727607311
aF0.43246592986451049
aF0.29699855476284903
aF0.025146852356711259
aF0.7958534629938615
aF0.99044430917560222
aF0.070382184641827744
aF0.72199536564294586
aF0.99259255182882178
aF0.090266016799688834
aF0.51542249791930073
aF0.068756923694116567
aF0.089840218470524563
aF0.065505857743791474
aF0.064789887146488756
aF0.07655579959693834
aF0.12683295087670274
aF0.062736018224100423
aa(lp65
F0.10380833148335478
aF0.40358405974585915
aF0.29832709391109891
aF0.22665620160489258
aF0.80071595598541023
aF0.99183002382362662
aF0.0968169326960093
aF0.7089732873108423
aF0.9921820697325473
aF0.092410723620555427
aF0.48705768162817159
aF0.068300784493818018
aF0.10511082524620821
aF0.059170241463170181
aF0.066483211473468348
aF0.089125235286698856
aF0.071759895587536093
aF0.066777515476894353
aa(lp66
F0.10400878642951389
aF0.39042832756642576
aF0.29883533581452415
aF0.22665620160489258
aF0.76802452078434624
aF0.99183002382362662
aF0.090435255821827459
aF0.70732615166514112
aF0.99280044136687218
aF0.091760028187068951
aF0.47773828241516214
aF0.068040324436409491
aF0.099238380653795255
aF0.022547854382783283
aF0.064961420541917586
aF0.1026977379777696
aF0.098027350921932072
aF0.069589710466888013
aa(lp67
F0.12189427318658999
aF0.40513771589867298
aF0.2975606951064661
aF0.1060169729421316
aF0.74885282067934178
aF0.98648499153491087
aF0.10527844157083566
aF0.69628795244990305
aF0.9898304779075795
aF0.11698520679488407
aF0.51137583142182574
aF0.068756923694116567
aF0.11566149391804409
aF0.061493624469907276
aF0.067142245119723942
aF0.14572897738976912
aF0.10666503213356046
aF0.073055883084117215
aa(lp68
F0.13490433356537435
aF0.42358416345003802
aF0.297170083617189
aF0.1060169729421316
aF0.74031093729261488
aF0.98648499153491087
aF0.11622156322585558
aF0.70543638249926299
aF0.98997242862756085
aF0.12954913169259935
aF0.55558463074689057
aF0.068839720139178787
aF0.14163218701240857
aF0.10854021045224733
aF0.067582876931219296
aF0.14572897738976912
aF0.10666503213356046
aF0.073055883084117215
aa(lp69
F0.15456397454632997
aF0.40801968045159104
aF0.29979016166995642
aF0.23228394805342611
aF0.74031093729261488
aF0.99471384026990839
aF0.16292991990244282
aF0.71432988767449701
aF0.99191538338284935
aF0.15599179923935019
aF0.55385994676246897
aF0.069732953444367668
aF0.14283765610450777
aF0.079703892078644034
aF0.067729754201717757
aF0.12542631915333741
aF0.090288603935991876
aF0.065247619028720366
aa(lp70
F0.14142029742142731
aF0.40225785891392907
aF0.3001939242063757
aF0.16465036044700804
aF0.76720777908638071
aF0.98587649743973926
aF0.16099617667891769
aF0.72024324078193591
aF0.99149115618501849
aF0.14705263007201086
aF0.52032629737303493
aF0.069613776307254044
aF0.1363560810343272
aF0.051047433043260752
aF0.067925786151964665
aF0.12453473418613939
aF0.069814020960334275
aF0.068925831926315864
aa(lp71
F0.1084905496554785
aF0.41606816112479073
aF0.30042392947918711
aF0.16465036044700804
aF0.76720777908638071
aF0.98587649743973926
aF0.10705231853964192
aF0.72117506801907638
aF0.99148152529989519
aF0.1143235161074929
aF0.51542249791930073
aF0.068756923694116567
aF0.11303506871400207
aF0.050910770371958819
aF0.069417205614943758
aF0.093626793733253055
aF0.074001637482221105
aF0.070824013347940334
aa(lp72
F0.097734696184087089
aF0.43420965332744038
aF0.29688671665128619
aF0.17938437400117654
aF0.80582049006178658
aF0.98475879639809594
aF0.083066909896476387
aF0.71124769803079191
aF0.98881498881422714
aF0.10201941639251262
aF0.51542249791930073
aF0.068756923694116567
aF0.10721775737215825
aF0.12021779896692901
aF0.066948933111346726
aF0.10161810759589179
aF0.074001637482221105
aF0.070824013347940334
aa(lp73
F0.092123529999244613
aF0.4237029243937307
aF0.29668346120775396
aF0.17938437400117654
aF0.80299362755423687
aF0.98475879639809594
aF0.094591672270590482
aF0.73397284533789064
aF0.99360841365211261
aF0.089391482199607727
aF0.51542249791930073
aF0.068756923694116567
aF0.096306917112439161
aF0.041455127232512247
aF0.065576225362234231
aF0.10161810759589179
aF0.06849295613976715
aF0.066104115356317009
aa(lp74
F0.11051700906082257
aF0.41851849192816165
aF0.29776393548587238
aF0.18420978823539186
aF0.77976175727404851
aF0.98975060599063425
aF0.11259237851963488
aF0.73335869429368328
aF0.99439973345002675
aF0.11112419379549791
aF0.51539214008761292
aF0.068756923694116567
aF0.11289221240387631
aF0.041046629793291239
aF0.065576225362234231
aF0.10619724534004171
aF0.12437818443377713
aF0.066104115356317009
aa(lp75
F0.13149110356314064
aF0.40983619587636511
aF0.29677650482749907
aF0.20927585980398197
aF0.7703601594872328
aF0.98975060599063425
aF0.11142636261162583
aF0.70034659256843179
aF0.99267091921974548
aF0.14296688888265841
aF0.51435142660395894
aF0.068756923694116567
aF0.13427478986501459
aF0.056848136377301191
aF0.066173009945028005
aF0.10721421881753324
aF0.12437818443377713
aF0.064452734465192243
aa(lp76
F0.12537042773994864
aF0.41831859174939201
aF0.29756312645291993
aF0.048592860163508028
aF0.7703601594872328
aF0.99264421778720846
aF0.11811731333490538
aF0.71392142635849998
aF0.99168817762283112
aF0.14563095189790898
aF0.51542249791930073
aF0.068756923694116567
aF0.13418110495862354
aF0.047739749533454334
aF0.065796757360956498
aF0.10721421881753324
aF0.116194242104602
aF0.064452734465192243
aa(lp77
F0.11019977358349356
aF0.4608272502759877
aF0.29673147328714294
aF0.048592860163508028
aF0.81619552809255236
aF0.99354391500519046
aF0.14810676413996104
aF0.72584688748410042
aF0.99242482417483302
aF0.13747365053068439
aF0.52574500674749802
aF0.068756923694116567
aF0.12122323288134704
aF0.091641467806287819
aF0.065078643951546084
aF0.081406874347143249
aF0.116194242104602
aF0.061651742740519364
aaa(lp78
(lp79
F0.096448110618230248
aF0.44013076512418081
aF0.34852361869412041
aF0
aF0.76068246475330259
aF0.99175350249952332
aF0.075769297102502964
aF0.69728510477400241
aF0.99260673768214636
aF0.097216249041354466
aF0.52657111611724194
aF0.068139300259007635
aF0.11785935943883513
aF0.1713000546552205
aF0.064310040761166518
aF0.12007099990539954
aF0.1188139152518785
aF0.41231167755784759
aa(lp80
F0.092498693960751333
aF0.46936570722982168
aF0.37240565624026056
aF0
aF0.7916767779035202
aF0.98340243949211237
aF0.056126787808735007
aF0.73773997902907595
aF0.99174675059776951
aF0.10124724627810118
aF0.53320555671680669
aF0.06813453194558243
aF0.11265828474416398
aF0.16194720497280982
aF0.06498962528387256
aF0.1010712010479633
aF0.11999501159733471
aF0.63548182161813482
aa(lp81
F0.10997032902944945
aF0.45063300342278217
aF0.37836025451665872
aF0.095032231150716462
aF0.77220153962591853
aF0.98340243949211237
aF0.090205821810567272
aF0.72256233953964
aF0.99393200723557829
aF0.10435817382209382
aF0.5155694000068507
aF0.068756923694116567
aF0.10617249303429863
aF0.14912771359980539
aF0.065682769952908823
aF0.11458150892409097
aF0.11999501159733471
aF0.63548182161813482
aa(lp82
F0.13690635216876043
aF0.41736809585078166
aF0.29796058109535312
aF0.19628834599216416
aF0.75406432413310454
aF0.99243291369745179
aF0.11985802822518388
aF0.72193350850321891
aF0.99181216555874829
aF0.13445702489845263
aF0.53143563012394346
aF0.068756923694116567
aF0.13563104088671429
aF0.065394309296725239
aF0.065026864722493402
aF0.11458150892409097
aF0.12727305220021892
aF0.067109581268537583
aa(lp83
F0.11688159731883627
aF0.43130947038945106
aF0.2976082664461272
aF0.146237613708815
aF0.75406432413310454
aF0.9917469824965669
aF0.089612174444867521
aF0.72588512613468326
aF0.99101483950879699
aF0.12350454063362669
aF0.53015843087990933
aF0.068584510362912826
aF0.13140731386265891
aF0.071463464771906002
aF0.066191791151081814
aF0.11203390771932364
aF0.12727305220021892
aF0.067109581268537583
aa(lp84
F0.11198941450978236
aF0.40076237448305624
aF0.29929724877559583
aF0.146237613708815
aF0.76963743103721549
aF0.9917469824965669
aF0.085205536545611527
aF0.70690831707174706
aF0.99098248946665402
aF0.11718210780297091
aF0.51542249791930073
aF0.068680779256724403
aF0.12807550669256787
aF0.06094457536750679
aF0.068733053107016079
aF0.093225472976584095
aF0.12192839351373223
aF0.068233339043847513
aa(lp85
F0.16230083887350777
aF0.41906606559712939
aF0.29982875117989805
aF0.22888410050323668
aF0.74537150535453744
aF0.99130119383314474
aF0.15875892018284221
aF0.72287221065023111
aF0.98994371815293691
aF0.16406746499038322
aF0.51789583788057014
aF0.069856391202080786
aF0.14320818822166287
aF0.080884416397408676
aF0.068645568874638407
aF0.14933561082385841
aF0.14325880929399146
aF0.068233339043847513
aa(lp86
F0.15995112060055872
aF0.42604170667086699
aF0.30013069169077855
aF0.20562660027664609
aF0.74537150535453744
aF0.99130119383314474
aF0.15602326474320527
aF0.72753099429775814
aF0.99172473737029032
aF0.16157949720171089
aF0.54085137534003569
aF0.06945920750795688
aF0.15974273906215117
aF0.10630351658142718
aF0.068604227718644009
aF0.14933561082385841
aF0.14325880929399146
aF0.067476193873115112
aa(lp87
F0.12112301381296162
aF0.4295833357037952
aF0.29998212094137211
aF0.20475912090807433
aF0.75727541875158511
aF0.99466542937234859
aF0.10601750049143513
aF0.73773997902907595
aF0.9936484624718388
aF0.11660385322890378
aF0.5531406596950954
aF0.068756923694116567
aF0.14200245926610508
aF0.10042066146485842
aF0.066225586190585869
aF0.097611297094528982
aF0.076422155746533563
aF0.067476193873115112
aa(lp88
F0.094651628499994811
aF0.45549650972851186
aF0.29789860586396794
aF0.20475912090807433
aF0.80358013969678654
aF0.99466542937234859
aF0.049032086450289669
aF0.73773997902907595
aF0.99403261977871893
aF0.078741664937503883
aF0.54041047770415773
aF0.068386497342189295
aF0.11002444297995012
aF0.11836146284810264
aF0.063970248499813503
aF0.094761272682974268
aF0.076422155746533563
aF0.063603860567965867
aaa(lp89
(lp90
F0.11045547205351586
aF0.43658363736943939
aF0.31569538308716405
aF0.085196809005580867
aF0.78308679409502602
aF0.9917349733677735
aF0.121822245625956
aF0.73136150806559497
aF0.99329455907043973
aF0.12397558728499568
aF0.55038320631189941
aF0.068756923694116567
aF0.11710992524316377
aF0.093176375025219332
aF0.066381183499334459
aF0.096339229915067159
aF0.11996980547808576
aF0.16960942315000321
aa(lp91
F0.13812416780317519
aF0.40743239801681563
aF0.2982000024041051
aF0.29212674199291888
aF0.78308679409502602
aF0.9917349733677735
aF0.13804219059696277
aF0.71261335063261999
aF0.9918345080860631
aF0.1463352841310952
aF0.53633327776551276
aF0.068207010073691815
aF0.1340519679948089
aF0.071724883415551624
aF0.065247597610247926
aF0.096339229915067159
aF0.049846531419359158
aF0.065811168545081136
aa(lp92
F0.13561726386151815
aF0.39991980058294346
aF0.29773906946505574
aF0.29212674199291888
aF0.76677609518465095
aF0.9855604731926263
aF0.11849049079540036
aF0.71261335063261999
aF0.99067992790843118
aF0.15096714559027252
aF0.51969270743948204
aF0.068169230040068793
aF0.1340519679948089
aF0.086402565976224907
aF0.065247597610247926
aF0.11119263400077758
aF0.048737613871726426
aF0.069328285622434024
aa(lp93
F0.13195821956871026
aF0.41100162267578161
aF0.29921193230257348
aF0.17237385804380112
aF0.76677609518465095
aF0.9855604731926263
aF0.11849049079540036
aF0.69986496765776562
aF0.99366886650843467
aF0.138760117557163
aF0.55741915953693111
aF0.068857646740403344
aF0.12767442778321136
aF0.099134915525359898
aF0.065505014572942444
aF0.11119263400077758
aF0.048737613871726426
aF0.069328285622434024
aa(lp94
F0.11280283568199315
aF0.43465310049005157
aF0.30209188656467645
aF0.17237385804380112
aF0.76855853216409187
aF0.99362132107688239
aF0.090679893053397936
aF0.71836448883817228
aF0.99515605793628192
aF0.11713006893643212
aF0.53595491042823462
aF0.070053858835527075
aF0.1231213687755727
aF0.096893138436149967
aF0.066577189678277721
aF0.10272911696669548
aF0.11207706088409876
aF0.070743662721684059
aa(lp95
F0.10299259286601989
aF0.42424389446407534
aF0.30063573236233115
aF0.18258304131710326
aF0.76855853216409187
aF0.99362132107688239
aF0.096688835232474929
aF0.71552135885337498
aF0.99202064329375139
aF0.093658075425286716
aF0.51201596233663216
aF0.070143543177113632
aF0.10176524066000117
aF0.0901678071685202
aF0.066792532827308862
aF0.096581363780637253
aF0.11207706088409876
aF0.070743662721684059
aa(lp96
F0.098537172144750246
aF0.3982485917641348
aF0.29770094252774426
aF0.23968871395063818
aF0.76764144115433686
aF0.99201892412361559
aF0.089487094510665471
aF0.70917097725865574
aF0.99155603314657403
aF0.087759917454538997
aF0.51198116644160607
aF0.0663113795670979
aF0.085175227260829572
aF0.060625221049002725
aF0.067228907983890987
aF0.090824663879805673
aF0.07037320518779154
aF0.066404609363000217
aa(lp97
F0.11538663453258127
aF0.40819748209747531
aF0.29950368077950634
aF0.23959785995521363
aF0.76764144115433686
aF0.99201892412361559
aF0.083806202394904578
aF0.70361964615921213
aF0.9907819637101315
aF0.098699022854704235
aF0.53426246424479362
aF0.069855016743502821
aF0.13460734413507108
aF0.049054457195132045
aF0.067576024453529712
aF0.11681220719459706
aF0.11767785751860448
aF0.072423926081586737
aa(lp98
F0.14709108787412989
aF0.42331858328833266
aF0.30210458528816508
aF0.23959785995521363
aF0.79305731474969332
aF0.99426165262547994
aF0.13000468728846437
aF0.72252644741634076
aF0.99150003372298101
aF0.15533571317387324
aF0.53132008049328938
aF0.070879644803707439
aF0.14942918168476502
aF0.04480585842085176
aF0.067343664970541353
aF0.11681220719459706
aF0.11767785751860448
aF0.072423926081586737
aaa(lp99
(lp100
F0.14066750478443257
aF0.43792611630174605
aF0.25750569687469332
aF0.2046260715526346
aF0.77793290165316087
aF0.70267811238809563
aF0.12215162388178402
aF0.70904284573274012
aF0.98798474661472346
aF0.15581655212164514
aF0.51471016307343309
aF0.068441929895561804
aF0.14453084655155501
aF0.072739887153331503
aF0.066319516884718224
aF0.104899959313946
aF0.19044117774166353
aF0.071943821640663499
aa(lp101
F0.12019363917201878
aF0.41692872937037961
aF0.29896096126296484
aF0.15139059144385603
aF0.77793290165316087
aF0.98887441082164218
aF0.12516429133425211
aF0.70727093128889951
aF0.98919797580423718
aF0.12920369703316958
aF0.51542249791930073
aF0.068756923694116567
aF0.1281072264183086
aF0.049096109583524374
aF0.069521032553909984
aF0.10156310079819189
aF0.1037529812372172
aF0.071943821640663499
aa(lp102
F0.14337423674398644
aF0.41823342116460521
aF0.29876295573236933
aF0.15139059144385603
aF0.74909826015201564
aF0.9906073989281281
aF0.13966581503083153
aF0.71046970868585202
aF0.99237184267605827
aF0.14437273227692521
aF0.51667107044157345
aF0.068628659421813676
aF0.1401415777405885
aF0.099780521865865127
aF0.065699114557817309
aF0.14080039988641274
aF0.1037529812372172
aF0.067874401286042899
aa(lp103
F0.14677897532658579
aF0.39874054585556112
aF0.30015683218245426
aF0.21675105082998905
aF0.74909826015201564
aF0.9906073989281281
aF0.15125237180418383
aF0.71442428211925679
aF0.99295164233912692
aF0.13623205244888342
aF0.50369493395817622
aF0.068717395200800183
aF0.11731461991095588
aF0.089245776788012154
aF0.06761940777038869
aF0.14080039988641274
aF0.090652290762773327
aF0.067874401286042899
aa(lp104
F0.11987500464719056
aF0.41834100326054058
aF0.30139631238272058
aF0.06095648550035862
aF0.72779653225358665
aF0.99346657280931727
aF0.11578114099500697
aF0.70064062040239261
aF0.99347927179323636
aF0.11480814726537479
aF0.50244636143590349
aF0.069627402832024343
aF0.11542176849324559
aF0.088785079465144259
aF0.067056771607278826
aF0.15207421941998894
aF0.20910827731294238
aF0.069042338100617717
aa(lp105
F0.099523697123776095
aF0.43511719821687861
aF0.29912220452724331
aF0.06095648550035862
aF0.72779653225358665
aF0.99047274842526434
aF0.071560760733696271
aF0.72707308613559307
aF0.99177475320480568
aF0.076469046993770454
aF0.51542249791930073
aF0.068756923694116567
aF0.096153106309964875
aF0.064427115735872925
aF0.066118310118488344
aF0.15207421941998894
aF0.20910827731294238
aF0.069042338100617717
aa(lp106
F0.10752157480500957
aF0.41313050978218563
aF0.29636280720272279
aF0.18196039267126241
aF0.77451287425744364
aF0.99047274842526434
aF0.084330862984579702
aF0.72957195867852942
aF0.99097617831239559
aF0.092376260129714463
aF0.5216002415578459
aF0.068359550294595214
aF0.11121438793759372
aF0.041196139466911572
aF0.066091747387170441
aF0.098661153828949327
aF0.086424876451004495
aF0.065098957219549239
aa(lp107
F0.12035091838912745
aF0.399585815465275
aF0.29915700310212096
aF0.23344769760038239
aF0.76688572825520129
aF0.98101433236466495
aF0.093337053829171374
aF0.71910695904858446
aF0.98922764381982198
aF0.1113637646438833
aF0.53253659062597292
aF0.069239014521654138
aF0.13557585097654226
aF0.061347327433797734
aF0.067167398573901152
aF0.1023487765477531
aF0.069433849117759142
aF0.078697728439350967
aa(lp108
F0.11764920832626119
aF0.40661498287234032
aF0.29947076835638403
aF0.2186715889595337
aF0.76688572825520129
aF0.98101433236466495
aF0.090628696986675306
aF0.70365317122977888
aF0.98987874939661569
aF0.10492928106436127
aF0.53253659062597292
aF0.069099199390756663
aF0.13236666097110736
aF0.071321288394824739
aF0.066587774586022205
aF0.1023487765477531
aF0.06812980401377447
aF0.078697728439350967
aa(lp109
F0.1180393559471016
aF0.41138835157195369
aF0.29871808888475532
aF0.13621716248613372
aF0.7814110298873953
aF0.99447679101951347
aF0.066767751452429441
aF0.70893762672504379
aF0.99375175927394443
aF0.14642989425379521
aF0.51737225555320554
aF0.06894356227278893
aF0.13236666097110736
aF0.067589994159556521
aF0.065837825231638669
aF0.09825876913350895
aF0.06812980401377447
aF0.062203384244021484
aa(lp110
F0.064696991482869975
aF0.3946798162706473
aF0.30109921331426071
aF0.13621716248613372
aF0.82900687889385294
aF1
aF0.031958632828112232
aF0.73480844599948358
aF0.99564518454446149
aF0.064243981161595701
aF0.51181143805718921
aF0.069751746424071892
aF0.08298802680494341
aF0.0082259320375928785
aF0.06535859720339178
aF0.068994662079432875
aF0
aF0.06158712000079495
aaa(lp111
(lp112
F0.11217931639235668
aF0.42556363725741775
aF0.29577108504342275
aF0.23200304809177971
aF0.76764957205882134
aF0.97462593484413884
aF0.10266404713408564
aF0.71149581383046767
aF0.98991513349709392
aF0.10031916348822655
aF0.53567098585907158
aF0.070359401834609162
aF0.11492820082007424
aF0.067123110188762658
aF0.068298283078893449
aF0.10689108105983278
aF0.16648531386936466
aF0.066416825293769161
aa(lp113
F0.12448055628862575
aF0.39969869732813235
aF0.29881417888613454
aF0.210260036992379
aF0.71670748826952801
aF0.98524004150582789
aF0.096356282757108419
aF0.7169662716291445
aF0.9928462261444666
aF0.10369806231264479
aF0.52394418109445318
aF0.068756923694116567
aF0.12613225930743457
aF0.063221156163066478
aF0.066137838752726635
aF0.14682687418107049
aF0.094694372144078248
aF0.067817946433391202
aa(lp114
F0.13387673540141951
aF0.41706505634305063
aF0.29688276220584914
aF0.13124121142505082
aF0.71670748826952801
aF0.98027604231794729
aF0.13841032398258696
aF0.71076564473036385
aF0.99149240058187071
aF0.13424501262814609
aF0.53234003831456445
aF0.068610555809990051
aF0.13724032002787798
aF0.10301088211199085
aF0.066977700684505634
aF0.14682687418107049
aF0.094694372144078248
aF0.071112320635612403
aa(lp115
F0.11208182662333124
aF0.4144205376778124
aF0.29811596320907724
aF0.13124121142505082
aF0.7806456750084797
aF0.98027604231794729
aF0.098747351590415727
aF0.69731980698590468
aF0.99056463825835117
aF0.11567153417871594
aF0.52552268891100684
aF0.068756923694116567
aF0.11705500379365077
aF0.11405085830695824
aF0.067083283151978368
aF0.092469254976542459
aF0.073837188903747381
aF0.077064297540304666
aa(lp116
F0.13566358497423642
aF0.40991366727799389
aF0.299312067190175
aF0.21799822561150792
aF0.7806456750084797
aF0.9879166582733212
aF0.098747351590415727
aF0.70543388089145331
aF0.99302093594811613
aF0.12785209804259368
aF0.50347546927981046
aF0.069527123405907873
aF0.13820519762774691
aF0.045909237950463325
aF0.065173602189750809
aF0.12305383521145227
aF0.092621707476552184
aF0.077064297540304666
aa(lp117
F0.1460486354426917
aF0.40232353134487991
aF0.29980697364623093
aF0.24251808054770718
aF0.77710089844904662
aF0.99156725272229496
aF0.12291853715429757
aF0.70596000235324607
aF0.99333786259127499
aF0.13662109947716439
aF0.50347546927981046
aF0.069600805322492354
aF0.16047783708089675
aF0.036537483854603758
aF0.066872374507511295
aF0.12305383521145227
aF0.092621707476552184
aF0.065979792899962905
aa(lp118
F0.11137457905822742
aF0.39127622519051963
aF0.30020325858771862
aF0.15154964850022723
aF0.77105368384540196
aF0.99156725272229496
aF0.10647831992393292
aF0.68992238926700378
aF0.99183852116542193
aF0.10144373763552055
aF0.49489693910026772
aF0.06958024449478481
aF0.11273769711035156
aF0.058055913316777126
aF0.067579434196721147
aF0.096073314814278193
aF0.12115686735012837
aF0.069971079086333376
aa(lp119
F0.11128931038428067
aF0.43280939634494026
aF0.29979981224229491
aF0.13507024737415063
aF0.77105368384540196
aF0.99263787164106343
aF0.075553936059026938
aF0.71448518960536733
aF0.99146396906437084
aF0.1293276402603436
aF0.51542249791930073
aF0.068756923694116567
aF0.1296891766841054
aF0.096177122998455308
aF0.067392072428723318
aF0.096182622177193533
aF0.12958400371303913
aF0.069971079086333376
aa(lp120
F0.11329888239941732
aF0.43668175520241492
aF0.29737940607505831
aF0.066252506075504952
aF0.79503496747293534
aF0.98956827469718278
aF0.12493892198507567
aF0.71448518960536733
aF0.99321026804947488
aF0.12953171639746869
aF0.51542249791930073
aF0.06873019943041421
aF0.12423109087581927
aF0.077435934061138953
aF0.065399671985891264
aF0.096182622177193533
aF0.12958400371303913
aF0.064606355775887636
aa(lp121
F0.1139850035946858
aF0.41608738484305974
aF0.29769433956695768
aF0.066252506075504952
aF0.7887086511659499
aF0.98956827469718278
aF0.10000052452633285
aF0.69942805029417643
aF0.99282116721593439
aF0.13835497035833755
aF0.52034523838353186
aF0.068588955657237882
aF0.1267322480678604
aF0.054572577221158713
aF0.065174073115275358
aF0.081274074866672236
aF0.12054981423274673
aF0.067135360715263978
aa(lp122
F0.12347059229937563
aF0.37435885780334266
aF0.30012027299942007
aF0.27391192426161859
aF0.7887086511659499
aF0.99220666373399613
aF0.091802237879847759
aF0.6844876050838048
aF0.9906042538106703
aF0.15463931000225795
aF0.52128965477592515
aF0.068447711884061554
aF0.12577035929418656
aF0.015697449522011516
aF0.071043254324545516
aF0.077598395648713486
aF0.050589636185858253
aF0.067135360715263978
aaa(lp123
(lp124
F0.11003812593719367
aF0.42601565992510343
aF0.26416046223795359
aF0.14042103785077079
aF0.7649323578662327
aF0.74470931798685291
aF0.10200990870207771
aF0.70645606687036788
aF0.99146257346294286
aF0.10172714159441094
aF0.51456344598000348
aF0.068746327415612499
aF0.12244654511816516
aF0.10139838789094431
aF0.067178917449576409
aF0.10996362271422466
aF0.15195824106265104
aF0.066346731403094869
aa(lp125
F0.089770407156478327
aF0.42595947187140681
aF0.29942531984154408
aF0.035230141787311819
aF0.76494343821108057
aF0.99277435393874491
aF0.047218940229766776
aF0.7269617106834072
aF0.99310736456935245
aF0.092093746757577519
aF0.51542249791930073
aF0.068756923694116567
aF0.11379674878745705
aF0.10164538789564462
aF0.067416451661608284
aF0.089554301535952341
aF0.071723102478201781
aF0.067660835789713561
aa(lp126
F0.082761684198767699
aF0.42725429265716941
aF0.29885055044129982
aF0.035230141787311819
aF0.76494343821108057
aF0.99277435393874491
aF0.00097078388942237193
aF0.73546036388139335
aF0.99337486945616582
aF0.087015406297902817
aF0.51542249791930073
aF0.068756923694116567
aF0.11058775284687328
aF0.088841488917977926
aF0.065427760961526596
aF0.089554301535952341
aF0.10681884697722764
aF0.067660835789713561
aa(lp127
F0.11127728285946117
aF0.43105165936339279
aF0.29945250468607931
aF0.087250385837673708
aF0.78939250113703319
aF0.99315416716284
aF0.11407318498474661
aF0.7014431509039375
aF0.99382488570155003
aF0.128751750186474
aF0.51957694342109539
aF0.068756923694116567
aF0.11834329331057725
aF0.047823776120549492
aF0.065444208897639244
aF0.11238293511220335
aF0.16674151133704732
aF0.067514150718424037
aa(lp128
F0.12828114124217538
aF0.41347577324409812
aF0.2995704009199126
aF0.087250385837673708
aF0.77088538221980596
aF0.99162102292838494
aF0.13097027252610227
aF0.69693955383998696
aF0.99083142107011035
aF0.129176210549931
aF0.50719899077305863
aF0.069389721859731232
aF0.13578022126500205
aF0.047823776120549492
aF0.068202649123321718
aF0.11829193000696137
aF0.16674151133704732
aF0.067516732253316725
aa(lp129
F0.11474018311312786
aF0.40727772076933322
aF0.29878838556579784
aF0.1468597665232671
aF0.77088538221980596
aF0.99162102292838494
aF0.092758651234527284
aF0.70034420694148447
aF0.98956321270897829
aF0.10573581931391403
aF0.50719899077305863
aF0.069449229726727485
aF0.13135613243357655
aF0.058087907085647192
aF0.067511934296263787
aF0.11829193000696137
aF0.12458786624758694
aF0.067516732253316725
aa(lp130
F0.10553200023367437
aF0.45062736132810038
aF0.29951187355073849
aF0.11203604996225371
aF0.79979391466160887
aF0.99155020385464887
aF0.069706249200986392
aF0.72986795535849325
aF0.99192123486975425
aF0.11569024433494039
aF0.53971831429923856
aF0.068756923694116567
aF0.1295135148077888
aF0.086461471497179684
aF0.065839231243433924
aF0.09288901279620787
aF0.10113373731585026
aF0.069413680796189592
aa(lp131
F0.11879918901725681
aF0.4290803381125835
aF0.2985392605981449
aF0.11203604996225371
aF0.75677476876877026
aF0.99155020385464887
aF0.10464220049292747
aF0.69460310799606251
aF0.99179351738341226
aF0.1223518771640804
aF0.54243116230399491
aF0.068002065222118324
aF0.1288935727815593
aF0.13143799043384857
aF0.066961099314158487
aF0.13814774917904191
aF0.10113373731585026
aF0.069413680796189592
aa(lp132
F0.12011586000372854
aF0.4124963754185107
aF0.2989197128553619
aF0.17926159074952178
aF0.75677476876877026
aF0.99069715630639676
aF0.093797324846493169
aF0.7023324618919049
aF0.99075774544368467
aF0.11278991860872097
aF0.52892683011164787
aF0.068676800861722162
aF0.11651162952531063
aF0.10157042344642005
aF0.068557533676185223
aF0.13814774917904191
aF0.08764692251264837
aF0.069728374478637639
aa(lp133
F0.11169305443907712
aF0.42926003421210246
aF0.30083022232068485
aF0.14643534059242511
aF0.74560302947718871
aF0.99069715630639676
aF0.067674702717606727
aF0.71674613625263495
aF0.99390110065498694
aF0.10027675289022984
aF0.51542249791930073
aF0.069042540286732818
aF0.12469149726224804
aF0.079338950515095444
aF0.069091170042214323
aF0.11886192414764543
aF0.10468833108802744
aF0.069728374478637639
aa(lp134
F0.1200584231414222
aF0.41811066951859216
aF0.30048389201704628
aF0.14643534059242511
aF0.74560302947718871
aF0.99746631802246877
aF0.10209957162754787
aF0.70658536463265875
aF0.99419089598101018
aF0.12448150292423783
aF0.51542249791930073
aF0.069112385336057097
aF0.13788217040743009
aF0.077479260497882979
aF0.065181202871454277
aF0.11234737381540161
aF0.10468833108802744
aF0.065410561795307715
aa(lp135
F0.12610073561930013
aF0.41683892659517524
aF0.29977443371620482
aF0.20155778355310672
aF0.80826160674919445
aF0.99580199271336167
aF0.13604778248567667
aF0.70658536463265875
aF0.99419089598101018
aF0.13176620580652626
aF0.53223310197606366
aF0.069112385336057097
aF0.12390385039669971
aF0.060739218155339746
aF0.065003110377377715
aF0.095682137518730281
aF0.074016749155005376
aF0.066337538278865765
aa(lp136
F0.11648403666097953
aF0.43698823219931665
aF0.30601591940892559
aF0.07802406412734865
aF0.80826160674919445
aF0.99510847861666929
aF0.14252220519234066
aF0.70792465766912327
aF0.99447621047369072
aF0.13078436452619191
aF0.53223310197606366
aF0.069557033413087749
aF0.12060887371765713
aF0.05798864898127306
aF0.068239063501157868
aF0.089798448450625068
aF0.13090822265404231
aF0.094272152987780772
aa(lp137
F0.10367976739103096
aF0.45229876088010573
aF0.31397925497391682
aF0.07802406412734865
aF0.80894755758038972
aF0.99510847861666929
aF0.11227275084324839
aF0.70629162211445584
aF0.99273257267959059
aF0.11925572250141152
aF0.49021770094509792
aF0.072048542719159739
aF0.12474050683743698
aF0.11524615977607373
aF0.070097915140220818
aF0.089798448450625068
aF0.13090822265404231
aF0.094272152987780772
aaa(lp138
(lp139
F0.41311178159050554
aF0.42347492499641198
aF0.31694971018972856
aF0.082096533397813157
aF0.26978598222348482
aF0.65278379009103027
aF0.16760848769712694
aF0.66234272563642926
aF0.94776297186596425
aF0.25790113864297604
aF0.59599027967965557
aF0.068756923694116567
aF0.46580581206790062
aF0.26713921782826011
aF0.13402815581003119
aF0.70512702721421316
aF0.84681717432508619
aF0.31310444450279068
aa(lp140
F0.79112627971803018
aF0.40367885241898954
aF0.29882638417380492
aF0.23547074051957004
aF0.26978598222348482
aF0.88793094665181571
aF0.72552390510226017
aF0.41089892732602012
aF0.92206017709527721
aF0.66121204530288191
aF0.47407788199342094
aF0.076252958402976578
aF0.94565855548987821
aF0.68484737538609086
aF0.1206419820625405
aF0.75661863881209301
aF0.84681717432508619
aF0.19101269129832696
aa(lp141
F0.81563520403817691
aF0.41057746014849406
aF0.3080031396134042
aF0.7712567906835065
aF0.40275535586414757
aF0.90797698222368539
aF0.78273058371205162
aF0.41269577771037258
aF0.96823298019291848
aF0.69238576094980819
aF0.46100493043195812
aF0.065763925389385747
aF0.75622401069581258
aF0.32458128566471905
aF0.1134850589170058
aF0.75661863881209301
aF0.61764656931480311
aF0.19101269129832696
aa(lp142
F0.52452984876097897
aF0.43124431503868521
aF0.28092023819661682
aF0.14719402244805657
aF0.47422732328044159
aF0.73736524774287338
aF0.30439567615972529
aF0.64058774353531278
aF0.96900684769750423
aF0.49698875239829454
aF0.61444895834568536
aF0.063860024967346912
aF0.55746440199861746
aF0.28329102747767143
aF0.082967717652051437
aF0.52009372090928518
aF0.40527901504666958
aF0.32016758731246697
aa(lp143
F0.25778656106189363
aF0.51185593110901051
aF0.21780930763118725
aF0.11791483172779256
aF0.47422732328044159
aF0.53375594246048275
aF0.045276222405038535
aF0.73773997902907595
aF0.93032339794197561
aF0.20194526630708337
aF0.59421417139157739
aF0.068756923694116567
aF0.30663341428713908
aF0.31054264168488671
aF0.065377615571894601
aF0.49432135854896675
aF0.39426337680783874
aF0.32016758731246697
aa(lp144
F0.36023822680828677
aF0.49410070056433314
aF0.25338206401521418
aF0.11791483172779256
aF0.7054730634908698
aF0.53375594246048275
aF0.068332873862846477
aF0.72300228568546454
aF0.94813075590841656
aF0.41102640805240875
aF0.54033939884015547
aF0.068756923694116567
aF0.40980852895554098
aF0.28404812636270704
aF0.098216801840331519
aF0.40946305188814752
aF0.23319624903817421
aF0.21800560318877565
aa(lp145
F0.68896726684964205
aF0.44564560610566895
aF0.3137197440880487
aF0.59581950960005237
aF0.66740178736233291
aF0.91330338531872879
aF0.69506514577405076
aF0.66692935284566168
aF0.95129814048633254
aF0.72619825355825918
aF0.54216346521903125
aF0.053550703660368383
aF0.69671830693351178
aF0.23656546850916682
aF0.12267832111169084
aF0.45656551596513095
aF0.22547424177223246
aF0.19740123232897525
aa(lp146
F0.76636670353763103
aF0.36797412946127833
aF0.30333582345540022
aF0.65208909300392548
aF0.52349629264963404
aF0.82875733635982329
aF0.77889591594566543
aF0.54134706607453553
aF0.93999098686492033
aF0.8053761356996757
aF0.52342519847324587
aF0.080038979638221458
aF0.75813248954611212
aF0.29688375136770617
aF0.13350090252091332
aF0.5378882441060221
aF0.31367265414138851
aF0.15528773813463645
aa(lp147
F0.55270321604187778
aF0.32897191227227568
aF0.31549096815360256
aF0.41909699074004692
aF0.52349629264963404
aF0.82875733635982329
aF0.35230018747498648
aF0.60532438646403952
aF0.9383685835360287
aF0.44879833343504705
aF0.43662550488267543
aF0.095591800349533684
aF0.68770823930060354
aF0.29688375136770617
aF0.11810645426037469
aF0.5378882441060221
aF0.31367265414138851
aF0.1969917432350429
aa(lp148
F0.25716056808197763
aF0.5089600736820632
aF0.36464712299978541
aF0.060320572616698723
aF0.53855882923140175
aF0.74994918948875733
aF0.031757488277026985
aF0.73773997902907595
aF0.94068155533207831
aF0.18687757339471095
aF0.51542249791930073
aF0.068756923694116567
aF0.28406932116592454
aF0.30739672395388801
aF0.10740577812419588
aF0.41873978536715384
aF0.26171385683566384
aF0.48182820882354688
aa(lp149
F0.37718488104923276
aF0.51633166787404239
aF0.35882336580524232
aF0.060320572616698723
aF0.27308572948821086
aF0.74994918948875733
aF0.09787122569785453
aF0.70965055844412706
aF0.94048074493821177
aF0.33381100824543136
aF0.51542249791930073
aF0.068756923694116567
aF0.4502834476394677
aF0.45010003000583482
aF0.086697805092525462
aF0.71775457388857711
aF0.62921652592545962
aF0.48182820882354688
aa(lp150
F0.73441250842012729
aF0.37601789362608495
aF0.29686021736230517
aF0.52417427541821338
aF0.27308572948821086
aF0.88680671040566839
aF0.59230146917010473
aF0.47571729467675322
aF0.92152901875833981
aF0.6327598687863687
aF0.71126931962239104
aF0.071717664917456944
aF0.71130933795392581
aF0.43520230381904457
aF0.12044765749863348
aF0.72856852216086043
aF0.62921652592545962
aF0.22108104342104434
aa(lp151
F0.821411544810834
aF0.35448289430752328
aF0.29364699511651438
aF0.4076414131589996
aF0.38878797693317119
aF0.88680671040566839
aF0.6767560620312254
aF0.39573172839958354
aF0.92152901875833981
aF0.7898489016136
aF0.71126931962239104
aF0.04741358166397773
aF0.79178445497908778
aF0.51378435869227823
aF0.12044765749863348
aF0.72856852216086043
aF0.66284053027027623
aF0.19077037463080274
aa(lp152
F0.55324132059755426
aF0.38619168602456666
aF0.35093112183741249
aF0.16457085093194301
aF0.38878797693317119
aF0.88687559133859062
aF0.29170572534930994
aF0.40369229083072034
aF0.95536561259202601
aF0.43591714087415756
aF0.58091059314710591
aF0.083202606733864481
aF0.70883342615880318
aF0.60333307449777185
aF0.1170389710247185
aF0.71456350281557113
aF0.66284053027027623
aF0.31174510267618288
aa(lp153
F0.26591390307224816
aF0.41700965184256794
aF0.36766359055928338
aF0.14923878632963708
aF0.40425497331240001
aF0.70168412466933572
aF0.097310496553735693
aF0.58736234986056879
aF0.89763894019676194
aF0.20471804123280485
aF0.58091059314710591
aF0.068756923694116567
aF0.24338624890389107
aF0.24018019560531303
aF0.11302187602718912
aF0.52884341836601545
aF0.53346183457930474
aF0.73630521079977851
aa(lp154
F0.32815984131479464
aF0.46840836280792014
aF0.32093644882628247
aF0.14923878632963708
aF0.66085425646653262
aF0.70168412466933572
aF0.14245354376309821
aF0.65886384140906562
aF0.86378939288347911
aF0.23358216681118038
aF0.58242359181183012
aF0.039269700083673101
aF0.37885560978638411
aF0.24426794823887485
aF0.13514449822008173
aF0.504881918559548
aF0.35554337606351016
aF0.73630521079977851
aa(lp155
F0.62377498775289553
aF0.5980633871682971
aF0.27210194104189367
aF0.58251279135392653
aF0.68383777611885155
aF0.87224167157313859
aF0.61605453232671992
aF0.65486187226241255
aF0.93031268693345037
aF0.58094456856431109
aF0.71446990604444027
aF0.0097824764732296274
aF0.57829272960088129
aF0.395559847778301
aF0.1518464980751742
aF0.504881918559548
aF0.35554337606351016
aF0.14927392100683512
aaa(lp156
(lp157
F0.34489469053544647
aF0.4541318543273386
aF0.34111292453283854
aF0.035060736718696486
aF0.67234397502784848
aF0.79017810826549428
aF0.28606729885336113
aF0.6775228335152248
aF0.96933618892228324
aF0.28402846070764459
aF0.51542249791930073
aF0.068756923694116567
aF0.42363939145446394
aF0.24800253739178849
aF0.1092764355084497
aF0.38925340689543864
aF0.26872789894192223
aF0.29702447061799941
aa(lp158
F0.69397204932104994
aF0.37232420797341542
aF0.29262004416994103
aF0.46092439406108299
aF0.46140614514100048
aF0.92043464948739773
aF0.62804292311926879
aF0.55431145457640063
aF0.96234151893240227
aF0.60617411381980868
aF0.48228649375445592
aF0.051217874710446844
aF0.6632315925505391
aF0.28487159865592993
aF0.089462612388002516
aF0.60960865172146828
aF0.46781523010044357
aF0.18495019264233609
aa(lp159
F0.80730865028063559
aF0.3712080820354231
aF0.2900545141085038
aF0.51928132834968876
aF0.46140614514100048
aF0.91724599234365889
aF0.70693429867714286
aF0.41046707861573895
aF0.94718172568541303
aF0.80245872331524148
aF0.66872316061740955
aF0.047092951098131365
aF0.79572946536631961
aF0.39613692876801715
aF0.086304340529638562
aF0.60960865172146828
aF0.46781523010044357
aF0.18495019264233609
aa(lp160
F0.53142610215965469
aF0.41812149963895917
aF0.3702625687962392
aF0.20190530419259828
aF0.49124523359354794
aF0.85013224370218654
aF0.43918386911175367
aF0.527858585268425
aF0.94843041347284684
aF0.44333015915823903
aF0.65230622785173931
aF0.068756923694116567
aF0.61178474332146882
aF0.36869579077451187
aF0.16677281314980996
aF0.55987519408601538
aF0.43034474470219625
aF0.37192144971854202
aa(lp161
F0.2422231260879561
aF0.44325279044977123
aF0.3831740981979318
aF0.013209652863051091
aF0.60853106305570326
aF0.69708253823446276
aF0.13513641895384798
aF0.66008365388741619
aF0.87194610506308712
aF0.19272615418951278
aF0.51542249791930073
aF0.068756923694116567
aF0.27544085628088377
aF0.24840072452670212
aF0.26078814544196299
aF0.36625735561270578
aF0.32607634236531635
aF0.48041975240805962
aa(lp162
F0.3676836672611295
aF0.43346987611954424
aF0.31282218050785937
aF0.013209652863051091
aF0.64179114188919839
aF0.69708253823446276
aF0.1585088683563699
aF0.61631877342640962
aF0.93636872595807552
aF0.30015182763327469
aF0.51141532775553411
aF0.065524841961588462
aF0.44900192217667911
aF0.22056388621513268
aF0.10406599628147199
aF0.47956190284775657
aF0.3850157578256922
aF0.48041975240805962
aa(lp163
F0.72420938330333873
aF0.48039608577840703
aF0.29275184679370653
aF0.64300204493435187
aF0.45349348291176794
aF0.93916101287488229
aF0.72872932707446714
aF0.54430891643693069
aF0.96244977102485674
aF0.64032441430891784
aF0.63661546230584198
aF0.062707803942344736
aF0.66645548657130482
aF0.4568696754602245
aF0.089960712834030093
aF0.65568520693001908
aF0.48755470723456623
aF0.11324130245410818
aa(lp164
F0.79507353483450305
aF0.38615365536421764
aF0.29243983261397305
aF0.75381080490974861
aF0.45349348291176794
aF0.90038737261442303
aF0.73601094629453179
aF0.53994517124316732
aF0.94585058805987332
aF0.76836949601184756
aF0.35123740908655943
aF0.051783063289231906
aF0.74874306962555026
aF0.51809206651697637
aF0.094727497995247517
aF0.65568520693001908
aF0.48755470723456623
aF0.24629601268323784
aa(lp165
F0.57397594277066022
aF0.31496573031562169
aF0.30270200308487427
aF0.32896449739387723
aF0.47484885633503082
aF0.77493196128089437
aF0.48856402057628945
aF0.53384394904296062
aF0.89731203444393937
aF0.52434084885362497
aF0.31954232631384627
aF0.038124312260206919
aF0.63102053572436378
aF0.37345167974159421
aF0.15970333930452368
aF0.61959149755484144
aF0.31088006702986865
aF0.24629601268323784
aa(lp166
F0.2662091734236442
aF0.47686083269956481
aF0.33119917204472432
aF0.015593164621749124
aF0.53411883675246719
aF0.77493196128089437
aF0.11645135373368548
aF0.68854399028151114
aF0.95201961050087003
aF0.16261620936202842
aF0.51542249791930073
aF0.068756923694116567
aF0.33282934631981154
aF0.22087064891909491
aF0.11699391157225539
aF0.41229946785697863
aF0.53771048778383579
aF0.33082475874241163
aa(lp167
F0.40524756612778334
aF0.51153271466721573
aF0.33185375696425878
aF0.015593164621749124
aF0.53411883675246719
aF0.87683112005919883
aF0.12455036657103685
aF0.62911058418382237
aF0.95437902526271357
aF0.29312999956176733
aF0.51542249791930073
aF0.068756923694116567
aF0.56871888583646568
aF0.30747947934405173
aF0.11578977335640896
aF0.50502997259474103
aF0.53771048778383579
aF0.33082475874241163
aa(lp168
F0.74368319359892554
aF0.38454757695717534
aF0.31704738932993509
aF0.32584193019655516
aF0.21528846231815768
aF0.87683112005919883
aF0.60614670101861379
aF0.42655923105308846
aF0.95196836589138167
aF0.61448559141087133
aF0.48343169986403245
aF0.076393828898738386
aF0.70555651087969939
aF0.44791630358028495
aF0.10206533052867248
aF0.9525968177363946
aF0.91414558790203171
aF0.22521639918818029
aa(lp169
F0.82843262450453325
aF0.35789956381085863
aF0.29446004094577377
aF0.74636854159074684
aF0.21528846231815768
aF0.90113915974070002
aF0.60614670101861379
aF0.43901491157951078
aF0.92491136825831577
aF0.62130833641160421
aF0.32227836070978921
aF0.063903476250559213
aF0.70309760483085615
aF0.64360566641606631
aF0.091084477178092038
aF0.9525968177363946
aF0.91414558790203171
aF0.22811997142002405
aa(lp170
F0.71091529146518662
aF0.40041003876898462
aF0.29321918565092525
aF0.30099963425678045
aF0.29758861534148084
aF0.90379025814461733
aF0.55241125525792656
aF0.44365816877711461
aF0.91982263545013843
aF0.62130833641160421
aF0.4084215348052716
aF0.028163849622966884
aF0.70309760483085615
aF0.62211070932490931
aF0.12736890061358042
aF0.74203674251086982
aF0.69102144189074666
aF0.22811997142002405
aa(lp171
F0.54776292941494009
aF0.39063584162055398
aF0.34200044548450009
aF0.30099963425678045
aF0.44763686751030651
aF0.92949820950842743
aF0.56720475746839683
aF0.54491939673163126
aF0.94431331151223741
aF0.56816797621969084
aF0.72714866483742757
aF0.086380459243064839
aF0.54380306901570097
aF0.53585750496563145
aF0.1481754555326967
aF0.45190424933460105
aF0.30179467077916161
aF0.16960865985171369
aaa(lp172
(lp173
F0.40175017488096088
aF0.50405365753190123
aF0.30393531444092381
aF0.035462729693448963
aF0.55660046521983886
aF0.83996907272491239
aF0.20787481879349706
aF0.71189929806486063
aF0.92962815126742437
aF0.33704839506326539
aF0.55184961981638014
aF0.068756923694116567
aF0.42227917152938832
aF0.24937818829758532
aF0.14351424918903577
aF0.49984828521415503
aF0.34332539480165403
aF0.28243988636393091
aa(lp174
F0.77030725143161283
aF0.50380719175512567
aF0.29370983132393663
aF0.68578428311593775
aF0.29976672343020894
aF0.83996907272491239
aF0.62408771799843665
aF0.57382133884938535
aF0.93153604792550793
aF0.62303529553303905
aF0.60731706286045906
aF0.088822651486925072
aF0.80843922805187329
aF0.5216030212490721
aF0.11178127776210102
aF0.786976285922939
aF0.70797219675471712
aF0.18109444693833487
aa(lp175
F0.8300162639567491
aF0.32560734684563586
aF0.28867800839291147
aF0.59014052182043142
aF0.29976672343020894
aF0.81353530515225458
aF0.60800360739905646
aF0.26047198977311731
aF0.95604882662053581
aF0.70712956128223325
aF0.38390051712252515
aF0.081312103891372445
aF0.92419735310684148
aF0.71402857317042612
aF0.10027031571754219
aF0.786976285922939
aF0.70797219675471712
aF0.14924531943901373
aa(lp176
F0.5381796203982131
aF0.27714012855101211
aF0.29916568146537414
aF0.21927738459119439
aF0.31463992847783706
aF0.68171956222235097
aF0.34917799615936251
aF0.38938496430338077
aF0.92344378443846875
aF0.50538887155165912
aF0.51019949724965585
aF0.065377008112333157
aF0.54852949779002369
aF0.34386110514769863
aF0.15304222410744639
aF0.73173469197074148
aF0.55100993190639491
aF0.25978052684585107
aa(lp177
F0.25901379907724509
aF0.41687322241499752
aF0.29767858180493734
aF0.10758432932108736
aF0.57521151844393192
aF0.61595270687835513
aF0.09172615848883911
aF0.64447102883842722
aF0.87926368564641821
aF0.19753350486440613
aF0.51587227095325516
aF0.093935450815403776
aF0.29755410106593438
aF0.24628102082676884
aF0.20853797970470678
aF0.35090193755408916
aF0.37415566658920257
aF0.25978052684585107
aa(lp178
F0.43724186539192778
aF0.54783261504813918
aF0.26155921718867764
aF0.10758432932108736
aF0.43747679222929958
aF0.61595270687835513
aF0.23579200243759169
aF0.63040912459798804
aF0.86148333598821925
aF0.30237636942853224
aF0.60699677001815222
aF0.068756923694116567
aF0.44145013685269741
aF0.26613464905646123
aF0.16013392297072715
aF0.69028778565992277
aF0.52830909512979218
aF0.23809030558725969
aa(lp179
F0.82534644464492257
aF0.47330152182768437
aF0.27650504141458448
aF0.65857526489038976
aF0.38086936252384535
aF0.6959465809652069
aF0.69354048187913442
aF0.33839415139363693
aF0.95329175654894738
aF0.68630752825378738
aF0.60699677001815222
aF0.058669457658181115
aF0.94478107568350511
aF0.69061564900175021
aF0.092805876742439466
aF0.75677294776873405
aF0.71016573181211107
aF0.1976081361251314
aa(lp180
F0.83118158272857989
aF0.36024475988246529
aF0.29722581817997074
aF0.78018576788404859
aF0.38086936252384535
aF0.93629977030394218
aF0.73284191211016814
aF0.34011303844448898
aF0.96919828247244555
aF0.68630752825378738
aF0.41560160491863724
aF0.058669457658181115
aF0.87398675591712638
aF0.67550300290305165
aF0.083595561158920167
aF0.75677294776873405
aF0.71016573181211107
aF0.12861091057742224
aa(lp181
F0.51925211580064246
aF0.35749327428003758
aF0.30072377250953275
aF0.16495901818661873
aF0.38465377148245022
aF0.88678611743298708
aF0.27930665648230069
aF0.4757198592827957
aF0.96213503724768257
aF0.46774522895792392
aF0.46551205141896901
aF0.0784046722785217
aF0.50847596036978315
aF0.45593432393688843
aF0.093159135552267264
aF0.68836673800107384
aF0.4836521193424474
aF0.2022505820107792
aa(lp182
F0.20688346572430155
aF0.41279572756594729
aF0.25632629299818654
aF0.011750192257314863
aF0.44999478345940952
aF0.56283698591190323
aF0.048805491319363403
aF0.67285209268048796
aF0.92595430133486034
aF0.16565401040376831
aF0.51542249791930073
aF0.072034079657441727
aF0.32059570526134307
aF0.33313977105804948
aF0.10204746318193667
aF0.28689576034131598
aF0.26189733856067876
aF0.2022505820107792
aa(lp183
F0.40763437673405312
aF0.56080911611900952
aF0.26356574021071505
aF0.011750192257314863
aF0.62755446027886319
aF0.56283698591190323
aF0.10765004839964112
aF0.7347563469628674
aF0.97031356390598322
aF0.33837411719806337
aF0.56832173560040433
aF0.068756923694116567
aF0.44283615045433122
aF0.32765588181310096
aF0.12097222442172324
aF0.76391710484911257
aF0.52831234066406074
aF0.19027002114477254
aa(lp184
F0.6884152589644349
aF0.38637257661954671
aF0.30981539464046681
aF0.64312881853565784
aF0.31956984171144265
aF0.88925914215682533
aF0.51073343480022815
aF0.4861375726930115
aF0.93213804467858341
aF0.54978388015188073
aF0.73385685908640697
aF0.063366143419735552
aF0.61557481111901691
aF0.37538066981665125
aF0.13589588738530081
aF0.76391710484911257
aF0.59327221197473201
aF0.17989497408943841
aa(lp185
F0.76202475883323972
aF0
aF0.30664101709163888
aF0.72653085455820499
aF0.31956984171144265
aF0.88925914215682533
aF0.66018332102716981
aF0
aF0.89552419111267756
aF0.53875930977281306
aF0
aF0.066722915855427334
aF0.71085021797025927
aF0.43864026128406336
aF0.1611422040117694
aF0.71267691463027405
aF0.59327221197473201
aF0.17989497408943841
aaa(lp186
(lp187
F0.37586733105524256
aF0.49971180323178893
aF0.39450400799397889
aF0.098233430736194047
aF0.54908467995502885
aF0.049111522279779551
aF0.22820088521174958
aF0.73773997902907595
aF0.72238409880070509
aF0.31891261272821686
aF0.59896486012654671
aF0.068756923694116567
aF0.39189864167474298
aF0.28286732781311907
aF0.76642731758410798
aF0.44483930928643672
aF0.34146588282812285
aF0.99679054771662967
aa(lp188
F0.72637892595537046
aF0.37597341254919747
aF0.18288098157125215
aF0.51594297005995005
aF0.19615913148844755
aF0.010199237329537758
aF0.56840289329102456
aF0.42238368180009728
aF0.011836959322051643
aF0.50879263577638112
aF0.53649874190379387
aF0.083574566251536503
aF0.78772804124861862
aF0.52254196762453942
aF0.92095434268099907
aF0.83970434756499046
aF0.85205577016158129
aF0.99679054771662967
aa(lp189
F0.86780182977870002
aF0.36780839234272239
aF0.30153951109961835
aF0.68577680031906008
aF0.19615913148844755
aF0.010199237329537758
aF0.64670666080519235
aF0.27302310594704682
aF0.080643517633516293
aF0.76190306587881662
aF0.21636615060556619
aF0.10790418596760713
aF0.87280692890937084
aF0.81286051866441666
aF0.92095434268099907
aF0.83970434756499046
aF0.85205577016158129
aF0.98758332654313596
aa(lp190
F0.56068269837067841
aF0.41366009686391347
aF0.19706157380968975
aF0.13545849398083742
aF0.35485433498251245
aF0.024527944537022228
aF0.39276556654619421
aF0.57396853000008519
aF0.1460268339864792
aF0.4741334115611342
aF0.51542249791930073
aF0.062855281731127713
aF0.59339835662447693
aF0.48420868677665374
aF0.68535345047159524
aF0.74501129651018416
aF0.6733727530755429
aF0.98758332654313596
aa(lp191
F0.26859754793972501
aF0.49239339806911298
aF0
aF0.10037988170388894
aF0.57512515200438452
aF0.045145789430749872
aF0
aF0.73773997902907595
aF0.90288232133643065
aF0.21745267093636661
aF0.51542249791930073
aF0.068756923694116567
aF0.35847225212850664
aF0.38805100802505421
aF0.063970248499813503
aF0.40373947635121832
aF0.28345455872368691
aF0.86840142827820865
aa(lp192
F0.3655857285297901
aF0.5244164907884884
aF0.33652291614020735
aF0.10037988170388894
aF0.55760074201196153
aF0.026704981656425431
aF0.071424763298637728
aF0.73001345652251848
aF0.97819435979120117
aF0.37000682480881486
aF0.5692116903063914
aF0.068756923694116567
aF0.39950109391755917
aF0.48873974677104259
aF0.18656940202804287
aF0.45865070957689213
aF0.33786183231131178
aF0.99018737239276255
aa(lp193
F0.74558262470071401
aF0.40592642806898199
aF0.29724283423851555
aF0.53292566672443986
aF0
aF0.026704981656425431
aF0.52566456341530654
aF0.56462974900389262
aF0
aF0.613115058843966
aF0.5750310896414137
aF0.075168902755963135
aF0.66087518496894604
aF0.61050344765427433
aF1
aF1
aF0.95576712106814044
aF0.99018737239276255
aa(lp194
F0.88842219163196456
aF0.3922340759753144
aF0.17406819106102836
aF0.53292566672443986
aF0
aF0.031445150863295024
aF0.72638547801756026
aF0.41747159214458429
aF0.011827821168581387
aF0.68721788190593169
aF0.61987447122226647
aF0.064035209659692754
aF0.66087518496894604
aF0.47923630783974169
aF0.96555904169541262
aF1
aF0.95576712106814044
aF0.96229659662824285
aa(lp195
F0.58764415670730596
aF0.35133204942396212
aF0.4187576265901814
aF0.18889662129222418
aF0.020182419299276222
aF0.041018760369874285
aF0.40476611872874724
aF0.57305423317094095
aF0.935484675435724
aF0.46345221283872728
aF0.52806372175256167
aF0.071034071528851994
aF0.52793488589164239
aF0.18753889503501869
aF0.35024374856841411
aF0.98325824994479127
aF0.85765984744665058
aF0.95962000021452831
aa(lp196
F0.23556290880385461
aF0.36314597623267764
aF0.35308588414092029
aF0.13449946426813056
aF0.7233883825084213
aF0.041018760369874285
aF0.14332567174308625
aF0.65189524760413298
aF0.73716348034419588
aF0.20189814685595903
aF0.51542249791930073
aF0.068756923694116567
aF0.2796392123242083
aF0.083830038898193737
aF0.38998669992710133
aF0.26402195601626643
aF0.17975121405613445
aF0.95827863225574461
aa(lp197
F0.44571096972629443
aF0.50254170902613338
aF0.35049707204215508
aF0.13449946426813056
aF0.26328743092254847
aF0.063888783139720018
aF0.23234037057590134
aF0.6733811048068592
aF0.52330593227632383
aF0.2495703111058073
aF0.56872510331178616
aF0.089313639763287586
aF0.48119841336409519
aF0.40083701520788895
aF0.46365495645988786
aF0.69539602680701629
aF0.73919844628514308
aF0.96093885784650745
aa(lp198
F0.76138619955674236
aF0.41210166320113473
aF0.28425125844938287
aF0.45790709976756117
aF0.26328743092254847
aF0.02776096015289764
aF0.67328580691934192
aF0.40696077915073542
aF0.9414314159937025
aF0.61136606531922577
aF0.52944102611763333
aF0.077191484903501376
aF0.80102010784555511
aF0.56922296291990682
aF0.11531067663659778
aF0.69539602680701629
aF0.73919844628514308
aF0.9815897893085912
aa(lp199
F0.82538807258079994
aF0.39822281079048644
aF0.29328868647167006
aF0.73713371892764701
aF0.52326357675579915
aF0.02776096015289764
aF0.73567897949167593
aF0.46374298660109708
aF0.95177814689167084
aF0.8285911817855639
aF0.4558283106670622
aF0.066598162169807129
aF0.80711018011860103
aF0.44869019708765184
aF0.10394571082654896
aF0.62429614619822316
aF0.47823206114424005
aF0.99374911254562859
aa(lp200
F0.76176928204265759
aF0.39045117700705567
aF0.2861896442766414
aF1.0000000000000002
aF0.610223809528046
aF0.04219871832512867
aF0.79979981883165241
aF0.566765591478126
aF0.97227915195973358
aF0.80510760556076588
aF0.54513936284623665
aF0.065739153998467623
aF0.68217821523182143
aF0.25648063555372669
aF0.096711140287258759
aF0.47532379345356979
aF0.288873562654684
aF0.92230988698304173
aaa(lp201
(lp202
F0.41762635702150186
aF0.46879048298794657
aF0.27404774252765374
aF0.056622597334945624
aF0.3386925987468053
aF0.67853376851715841
aF0.21418717523975334
aF0.64760948471664126
aF0.88966907232696413
aF0.33153246353353466
aF0.54161715917992703
aF0.061808715126416947
aF0.42884495521050836
aF0.38034692235791118
aF0.11294517314077102
aF0.71454897970921027
aF0.7249568467910652
aF0.47015553034040619
aa(lp203
F0.787934930128531
aF0.49541526975184802
aF0.30871968082128587
aF0.60840351646623481
aF0.1455713510258354
aF0.8691288933104242
aF0.59143518185485777
aF0.59344599562491485
aF0.95693374776589746
aF0.71334796758237518
aF0.60207012621288047
aF0.061623955151057584
aF0.74490307181519344
aF0.48293133900867691
aF0.12000964290706442
aF0.86988374644515931
aF0.7249568467910652
aF0.18806483342953606
aa(lp204
F0.80618260767888761
aF0.36280554006470828
aF0.28519241461536282
aF0.62376350423206128
aF0.1455713510258354
aF0.81125985784149213
aF0.85619889495893164
aF0.62313487452686533
aF0.96981297314786818
aF0.77925719111973513
aF0.52045092344373978
aF0.057079095107472125
aF0.696167809933812
aF0.25423384674378807
aF0.1037354220174625
aF0.86988374644515931
aF0.59947556923575718
aF0.19934418614915198
aa(lp205
F0.53522118023151988
aF0.3093852784151942
aF0.33428892286025885
aF0.25039859239199247
aF0.47564157289710318
aF0.81125985784149213
aF0.40205900246326887
aF0.56984748137466568
aF0.93661099089718514
aF0.46450874265325037
aF0.51710782207399131
aF0.055740252815354677
aF0.58116283207133268
aF0.20831757881594773
aF0.12902261863332265
aF0.59508713157909454
aF0.29776772751090369
aF0.2712461281237305
aa(lp206
F0.21393926332018193
aF0.40340296208948978
aF0.4101900467315539
aF0.066236099206041704
aF0.64576565435579159
aF0.4544541320700386
aF0.13765314251360222
aF0.70934634397194163
aF0.91906031181589021
aF0.15603801614721136
aF0.51619829861187405
aF0.071660853654012827
aF0.21827568876722434
aF0.1700020021303997
aF0.23338672872495789
aF0.27334627717160614
aF0.16930957792588383
aF0.7426052574318418
aa(lp207
F0.39610655728875144
aF0.45429579698601014
aF0.33852753511438405
aF0.066236099206041704
aF0.49653175613986367
aF0.4544541320700386
aF0.19027855880248595
aF0.71638011598986995
aF0.90871511036043218
aF0.30319586568376761
aF0.54516566839831349
aF0.0489700049027912
aF0.42507999530569507
aF0.18226024227104742
aF0.14373048581869896
aF0.61568909795463989
aF0.39099430308745431
aF0.7426052574318418
aa(lp208
F0.75522649889703475
aF0.45183706312891286
aF0.28733226132979206
aF0.7036363890539018
aF0.42662222764502677
aF0.8757160705681214
aF0.67652590894660991
aF0.52642937020739156
aF0.93654010191838277
aF0.62565093435197328
aF0.56861465959745794
aF0.049315486944062237
aF0.74734205251899311
aF0.41227693966484175
aF0.11459803208491182
aF0.81399842546571233
aF0.71145089600402345
aF0.22473701152000772
aa(lp209
F0.83852849955623088
aF0.38237487139941495
aF0.28794730254160256
aF0.56094201879298056
aF0.16820749682435232
aF0.81661512107385348
aF0.67652590894660991
aF0.3680588230488312
aF0.94604512218156223
aF0.79965153113555121
aF0.65310881094566953
aF0.080759470698331143
aF0.74734205251899311
aF0.64286039764283254
aF0.10880411807713114
aF0.82737849990543655
aF0.71145089600402345
aF0.14556605220768876
aa(lp210
F0.59704643798030554
aF0.34789244715226231
aF0.31276170354842281
aF0.17492086383719693
aF0.16820749682435232
aF0.70044535921351092
aF0.32955489599103377
aF0.45024501746176765
aF0.93234076764035156
aF0.44326343642603727
aF0.51542249791930073
aF0.068756923694116567
aF0.73451291664624418
aF0.31203411656142854
aF0.1555740624429654
aF0.82737849990543655
aF0.69859551731027725
aF0.32566138027338798
aa(lp211
F0.25882126266742661
aF0.45493358478322976
aF0.19915915848826432
aF0.11413560139135097
aF0.40665562003086403
aF0.15173010165743273
aF0.15385511613578767
aF0.72357189960839907
aF0.78288790730189972
aF0.17264391810059415
aF0.51542249791930073
aF0.068756923694116567
aF0.22702441858972053
aF0.21687232221867861
aF0.28372744241141334
aF0.57269595654187266
aF0.53211211385749757
aF0.45244422937818846
aa(lp212
F0.37281197155148793
aF0.48759017266587307
aF0.193866520718524
aF0.11413560139135097
aF0.52904495524647022
aF0.15173010165743273
aF0.19209061187695542
aF0.72463947400812179
aF0.91128514005530759
aF0.17938882205538209
aF0.51542249791930073
aF0.092032005897108263
aF0.42792664983098228
aF0.2273439841151659
aF0.1496781921109322
aF0.49285636171525959
aF0.50872255611785144
aF0.45244422937818846
aa(lp213
F0.74404605186971795
aF0.42397749513212163
aF0.3065313610896922
aF0.4464867326442481
aF0.52904495524647022
aF0.91811681395165801
aF0.65678925799563159
aF0.36688620083060991
aF0.97935433068701372
aF0.75044382966540313
aF0.64868880983880661
aF0.071132765845737814
aF0.76861176483757188
aF0.48592811834933075
aF0.10340185179035932
aF0.61761785807859593
aF0.50872255611785144
aF0.12148938401732523
aa(lp214
F0.82518611280215304
aF0.3554735703718907
aF0.30605109194512853
aF0.86283820418452639
aF0.38590526130978114
aF0.87152548007809039
aF0.77573763984793309
aF0.43351099279324268
aF0.97935433068701372
aF0.77145602566551974
aF0.49266387783711807
aF0.064860998511530668
aF0.74557597378318308
aF0.27498235928829662
aF0.080439800855854199
aF0.68492412071988285
aF0.57177016557850635
aF0.20538762651384798
aa(lp215
F0.56881780402906401
aF0.34801341783662898
aF0.27725133745884872
aF0.43379752325664156
aF0.38590526130978114
aF0.73718397357934373
aF0.43986935917562364
aF0.60279829092929738
aF0.88224227377658115
aF0.48791551344130335
aF0.49359492578862513
aF0.067622126494585516
aF0.54849171030027966
aF0.16285445757675832
aF0.13495064820829222
aF0.68492412071988285
aF0.57177016557850635
aF0.2426797216862254
aa(lp216
F0.25784409244089174
aF0.38732761027898632
aF0.21555336505786507
aF0.10057560292969565
aF0.65691558845365938
aF0.48815288638365495
aF0.111664154645571
aF0.70758659791959322
aF0.83505585963863649
aF0.22580065541903899
aF0.51542249791930073
aF0.068756923694116567
aF0.28268945900282261
aF0.10546694263053541
aF0.16657776834923455
aF0.30096391018151275
aF0.18655826672171044
aF0.42760131690397429
aa(lp217
F0.19489754555883293
aF0.48291553902135725
aF0.18232968430921154
aF0.10057560292969565
aF0.72507118819495475
aF0.48815288638365495
aF0.083370482606301866
aF0.72972930984208995
aF0.75404992438860741
aF0.097279746505109579
aF0.53103348209794421
aF0.034378461847058284
aF0.28180836482767802
aF0.090807870855806688
aF0.2032228823565041
aF0.23378183228590665
aF0.22390329671668321
aF0.42760131690397429
aa(lp218
F0.49801929253945421
aF1
aF0.15975104122195777
aF0.97240448280141012
aF1
aF0.93672466246921282
aF0.66235063244321901
aF1
aF0.92754433202231501
aF0.49453214615840779
aF1
aF0
aF0.39050180444565641
aF0.46410754505272361
aF0
aF0.23378183228590665
aF0.22390329671668321
aF0
aaa(lp219
(lp220
F0.44063373730157862
aF0.61365085998767477
aF0.42110731735941848
aF0.12824290137038571
aF0.67984823575639353
aF0.37126804509406086
aF0.21436614949638827
aF0.7312375412323987
aF0.99515605793628192
aF0.41799967203772104
aF0.51542249791930073
aF0.083228466351988842
aF0.47471662512286594
aF0.25145454919892246
aF0.15677330261973887
aF0.78750904319206994
aF0.62940075255251382
aF0.83293877699137009
aa(lp221
F0.84294593320391675
aF0.5742806408517882
aF0.32287689769652472
aF0.67967445174772401
aF0.23156658641679329
aF0.89664167727221422
aF0.57226033934329334
aF0.70276757831621139
aF0.92896674729758899
aF0.60592914943660814
aF0.73832680597732359
aF0.077854426846617419
aF0.86050319286566856
aF0.80063781929696942
aF0.1212766945377711
aF0.84062105956241429
aF0.62940075255251382
aF0.24947529191072804
aa(lp222
F0.84428835993816842
aF0.32468823910250594
aF0.28554409635458178
aF0.53272968412627297
aF0.14828229661414349
aF0.89089450344265242
aF0.49148519790937872
aF0.24281756989815256
aF0.96962848099415244
aF0.74607655338280843
aF0.83365969812197627
aF0.071757466789321309
aF0.77721927957805004
aF0.69241084263005648
aF0.073155376795671301
aF0.84062105956241429
aF0.6076968536580668
aF0.1531032753754743
aa(lp223
F0.52071950779942267
aF0.34299351407949263
aF0.32095113971780698
aF0.16859697308238933
aF0.14828229661414349
aF0.89089450344265242
aF0.30129637539955972
aF0.44717756806962072
aF0.96962848099415244
aF0.4791490347914128
aF0.67798815886514008
aF0.068756923694116567
aF0.57693707978773601
aF0.41386485019047298
aF0.073155376795671301
aF0.69431719497634303
aF0.29138624039155198
aF0.21027381450669069
aa(lp224
F0.22396231931363686
aF0.50648046356050436
aF0.31645433139856927
aF0.064783670359643289
aF0.53841108505678603
aF0.77794952558357289
aF0.010433391557097188
aF0.73773997902907595
aF0.95184492367020512
aF0.17171029794660359
aF0.58068461710713182
aF0.068756923694116567
aF0.28049523007779897
aF0.24779894784839215
aF0.1213346644263476
aF0.33122622188627415
aF0.2783034467515455
aF0.21027381450669069
aa(lp225
F0.33202839468769041
aF0.46886790365281872
aF0.26471068151940158
aF0.064783670359643289
aF0.59084387458087484
aF0.77794952558357289
aF0.096064195460955376
aF0.73773997902907595
aF0.93417237622173555
aF0.3133826304351971
aF0.5915118453188053
aF0.068756923694116567
aF0.41856823389300368
aF0.18192072279536201
aF0.10815354333546751
aF0.48960689257319323
aF0.35891848364235518
aF0.17670281675227967
aa(lp226
F0.68956579922476824
aF0.40987924677080173
aF0.29140883915707871
aF0.42519961484868418
aF0.54081196113040664
aF0.84578225318241085
aF0.66544042729600761
aF0.57785710186216988
aF0.93404284346187083
aF0.72565293518042251
aF0.53707695434264768
aF0.072055994167920273
aF0.65715745380101087
aF0.2916885909609786
aF0.096257613137427672
aF0.65758281882182601
aF0.35891848364235518
aF0.20376838848516732
aa(lp227
F0.81587100615582253
aF0.42094677982788192
aF0.32517199546593178
aF0.9761759400815252
aF0.42441424424236257
aF0.87244616384694651
aF0.75498365261275246
aF0.64377923847220353
aF0.94971150531240678
aF0.72565293518042251
aF0.57762246286324337
aF0.080708449214904651
aF0.66759263288055626
aF0.2916885909609786
aF0.12171062822704651
aF0.70353450572337084
aF0.44588002133443272
aF0.20376838848516732
aa(lp228
F0.57156587846503437
aF0.33304075582741755
aF0.28623108616974363
aF0.21946116083248912
aF0.42441424424236257
aF0.74525647405944961
aF0.45560537612294105
aF0.51551041596302671
aF0.93726677635367628
aF0.53356115143750904
aF0.5686341924769085
aF0.090882588348310062
aF0.52396805146606962
aF0.21134833008330287
aF0.13365054736069748
aF0.70353450572337084
aF0.44588002133443272
aF0.17904729730748276
aa(lp229
F0.24781715249194064
aF0.35588626522872469
aF0.25733260102539024
aF0.080124173105070182
aF0.50117682918727824
aF0.55587551003998681
aF0.065670291989644247
aF0.56717083974126081
aF0.84460627480131079
aF0.20505221305273813
aF0.51542249791930073
aF0.066828154073518178
aF0.29048488557094077
aF0.18969851693874809
aF0.13365054736069748
aF0.47811233600320679
aF0.35342336738794855
aF0.47638766197276455
aa(lp230
F0.38562200817598979
aF0.47060686568235055
aF0.28588204983912091
aF0.080124173105070182
aF0.46072323196752374
aF0.55587551003998681
aF0.23239299628503157
aF0.67998828272518996
aF0.9731159218356088
aF0.3829913013450057
aF0.51542249791930073
aF0.064899384452919789
aF0.44085449521789355
aF0.34193557469310809
aF0.065395834396892519
aF0.57945386554851663
aF0.39026248661582086
aF0.47638766197276455
aa(lp231
F0.77136983014704386
aF0.48372447369687971
aF0.30207817751364641
aF0.58519199718414416
aF0.23784166668638396
aF0.87774980347512965
aF0.59133890252789667
aF0.52082740283015871
aF0.97310013693976516
aF0.63049922560008886
aF0.70081203606054432
aF0.054600598736075451
aF0.79805145269273281
aF0.45551427647573145
aF0.071607567826474761
aF0.93020285969759386
aF1
aF0.20402506235598736
aa(lp232
F1
aF0.47095098773459015
aF0.30373151822891364
aF0.58519199718414416
aF0.23784166668638396
aF0.87774980347512965
aF1
aF0.37591966505431135
aF0.94814766066248513
aF1
aF0.67310480958508545
aF0.053409251688965334
aF0.8812618823876428
aF0.53853279347096894
aF0.10781121139278005
aF0.93020285969759386
aF1
aF0.20402506235598736
aaa(lp233
(lp234
F0.37424951652791688
aF0.46561381765760362
aF0.057019979298579965
aF0.12734267523704354
aF0.27918466359506111
aF0.091007413281123828
aF0.07011816614904301
aF0.73773997902907595
aF0.83926803291435281
aF0.3094374391255052
aF0.58545531305072307
aF0.068756923694116567
aF0.3845904850223627
aF0.19001651735333469
aF0.089922452374479891
aF0.7397369839627973
aF0.60610817429722741
aF0.90854629885488802
aa(lp235
F0.7661287728244669
aF0.41080005449497803
aF0.42345477069787701
aF0.66387924409601684
aF0.27918466359506111
aF0.19877245875594973
aF0.62280405051788024
aF0.50105489770542944
aF0.95216366837876087
aF0.62478587510193395
aF0.61944260376255911
aF0.06067408817720988
aF0.6479498264581971
aF0.37319205530237631
aF0.11745601618189988
aF0.8987768854445789
aF0.80790236149603711
aF0.90854629885488802
aa(lp236
F0.84312633989212005
aF0.37691043811940106
aF0.29551932791345531
aF0.53962179481298689
aF0.37252393520718663
aF0.11959410300183759
aF0.6957651428829279
aF0.36604711979839177
aF0.96925656787418735
aF0.7349905491995109
aF0.24274070049636026
aF0.046608611425212956
aF0.88244370022763774
aF0.81649751669646609
aF0.10533598319684934
aF0.8987768854445789
aF0.80790236149603711
aF0.92524911150984024
aa(lp237
F0.50530646997733797
aF0.2722251842179137
aF0.39958608149532804
aF0.21315797464859318
aF0.40282088463303428
aF0.11959410300183759
aF0.30779014762133855
aF0.39743342319677272
aF0.97005882064408633
aF0.42859725173746044
aF0.33877789305276373
aF0.078292079927915065
aF0.58879582090708338
aF0.28617603836693534
aF0.1516525955052517
aF0.61053251127989328
aF0.46799572493432379
aF0.92524911150984024
aa(lp238
F0.26126441658441768
aF0.39054324058777984
aF0.30361191990807951
aF0.21315797464859318
aF0.59267626298813447
aF0.092088174822572033
aF0.13932147453688909
aF0.63361940102475356
aF0.96566853699764865
aF0.18588965141626301
aF0.51412474768487659
aF0.12952977854017333
aF0.23757831639634938
aF0.15462235459836912
aF0.20020775550257677
aF0.37787638233466359
aF0.3331653203378861
aF0.42255058160108283
aa(lp239
F0.43458210760345606
aF0.4740701226255663
aF0.19580496384656282
aF0.23349771556348298
aF0.37160714325218541
aF0.092088174822572033
aF0.23118683770782145
aF0.69566102161408583
aF0.91440611617052292
aF0.26120411879742073
aF0.61205962387863755
aF0.091146102320476652
aF0.38382215092621297
aF0.33731580137871425
aF0.15480104233883729
aF0.64185272145934946
aF0.50967173824278567
aF0.94451313759991717
aa(lp240
F0.75686440506225716
aF0.47400796661183781
aF0.29324637471667908
aF0.59133265873464502
aF0.37160714325218541
aF0.08251446662496098
aF0.65103221258410238
aF0.42748819499685098
aF0.91591522047918983
aF0.79053091662320263
aF0.75944820354335962
aF0.048347662053472337
aF0.76872150445495635
aF0.43322571182609204
aF0.11905230625320634
aF0.64185272145934946
aF0.50967173824278567
aF0.94451313759991717
aa(lp241
F0.75226380293388473
aF0.35513445509225006
aF0.29788322465025213
aF0.89608943144805564
aF0.60125581577542775
aF0.08251446662496098
aF0.68581040010436467
aF0.48602510789106917
aF0.96028303201157161
aF0.79178298479151976
aF0.49824975032953578
aF0.058355950122801065
aF0.71644408094934564
aF0.39421826299231322
aF0.1016330673816209
aF0.52995407624808977
aF0.26638439776959189
aF0.91449842960109828
aa(lp242
F0.476344554821309
aF0.33055991481478031
aF0.30256591656011678
aF0.24455105934521229
aF0.62329959453172434
aF0.69373178684112269
aF0.27880977727088996
aF0.51642815242413875
aF0.93243118645114031
aF0.46989036408911244
aF0.45898529185180437
aF0.076886930036068932
aF0.56303754718870613
aF0.11808284782066171
aF0.13492586257462685
aF0.42349422350461025
aF0.24204036342100574
aF0.2568635410091355
aa(lp243
F0.23577013171694639
aF0.41108933712476381
aF0.29839434531763859
aF0.066904177322331851
aF0.62329959453172434
aF0.2139205530996231
aF0.085273764888482678
aF0.71262852029848489
aF0.95015988549728281
aF0.19847440887772611
aF0.51542249791930073
aF0.068756923694116567
aF0.27029361783774197
aF0.14829836444566075
aF0.14055691320316638
aF0.33707385709623816
aF0.24204036342100574
aF0.78785473403301287
aa(lp244
F0.2152942352431696
aF0.43939728999560346
aF0.46573018232546209
aF0.066904177322331851
aF0.6371432269559516
aF0.11769482688317212
aF0.027537110631154132
aF0.70455985623503048
aF0.95027255919702702
aF0.18810866056979758
aF0.51542249791930073
aF0.068756923694116567
aF0.27015790821753038
aF0.15893863515669196
aF0.32421635492512901
aF0.36374384606690097
aF0.31890477499262948
aF0.98710246927949319
aa(lp245
F0.44348791882368299
aF0.35200126204287346
aF1
aF0.53062934940782824
aF0.6371432269559516
aF0.11769482688317212
aF0.36975074063506308
aF0.52009742687889138
aF0.98163664633834224
aF0.32766370407645801
aF0.27019501776056176
aF1
aF0.43316112640401072
aF0.21844390509348385
aF0.99267537116147575
aF0.36374384606690097
aF0.31890477499262948
aF0.98710246927949319
aaa(lp246
(lp247
F0.40092607065241459
aF0.60034131037562766
aF0.22768133976025989
aF0.066178780325934036
aF0.45657829080296924
aF0.45082546610733021
aF0.12781005438445431
aF0.73429407863097518
aF0.89426469900095107
aF0.29778147578529773
aF0.67307719216645701
aF0.064497542545980877
aF0.47131281059817698
aF0.30686221371320693
aF0.10922738909611288
aF0.54851591348248585
aF0.51037045881607934
aF0.22759227565582676
aa(lp248
F0.73075356521529999
aF0.4618763769817576
aF0.30147140110463161
aF0.63417675893571279
aF0.45657829080296924
aF0.86122741664752434
aF0.69734555188876457
aF0.52030325720665904
aF0.94241054642797994
aF0.66869538468651379
aF0.63224520223032077
aF0.054929302839456184
aF0.66261498118630391
aF0.50599330361623995
aF0.11686619474152432
aF0.64077434962025692
aF0.51037045881607934
aF0.1683945640050834
aa(lp249
F0.78291270511163191
aF0.3495925539061463
aF0.30558495188327744
aF0.42666796817855823
aF0.43175817634117331
aF0.76989979671153452
aF0.7083814956164689
aF0.43000765706943306
aF0.94539560083330598
aF0.69788097972353569
aF0.51509242804727551
aF0.06412209765024067
aF0.73418622679117629
aF0.38893272371040144
aF0.12821921965220823
aF0.67311967320542909
aF0.43895523806863479
aF0.21054259761985769
aa(lp250
F0.55799418985407834
aF0.36431852387662816
aF0.31410426920108142
aF0.23864105621425791
aF0.43175817634117331
aF0.76989979671153452
aF0.42690002503218749
aF0.63581835672937492
aF0.94290100375979391
aF0.51529473780921498
aF0.5579782848646796
aF0.076463505035211848
aF0.51336507105759976
aF0.33184379150625909
aF0.14770274635764036
aF0.67311967320542909
aF0.43895523806863479
aF0.21054259761985769
aa(lp251
F0.24315835136992958
aF0.43332230673577055
aF0.33272413138714635
aF0.024179909930078763
aF0.61606878748047644
aF0.37705563472209858
aF0.12694473328440747
aF0.68514205659089078
aF0.93954080803773399
aF0.21098133447243395
aF0.52128240707795503
aF0.071443027284095489
aF0.28749365678340522
aF0.18292243877610351
aF0.19212304663955343
aF0.30733642092589125
aF0.23057894883021293
aF0.68514834275326408
aa(lp252
F0.37121730428426819
aF0.52309441742525919
aF0.30963490984390946
aF0.024179909930078763
aF0.55437694483107092
aF0.37705563472209858
aF0.14962382345475134
aF0.68514205659089078
aF0.93128238421074006
aF0.24524862068374104
aF0.51542249791930073
aF0.068756923694116567
aF0.48805385981239635
aF0.41418628619593584
aF0.11207217990653726
aF0.56071247561919546
aF0.37278882137736402
aF0.68514834275326408
aa(lp253
F0.71598915358526449
aF0.45297398703447184
aF0.29549225156119763
aF0.55579139865221072
aF0.47624157506141196
aF0.84275759169656539
aF0.69157491223820455
aF0.59694639067035338
aF0.94355748111363169
aF0.68518773282413648
aF0.55156063488872487
aF0.057999741872974624
aF0.67325215719567977
aF0.53439761457913493
aF0.11149485449689896
aF0.58808076356236216
aF0.37278882137736402
aF0.19438706758111168
aa(lp254
F0.77714252039113885
aF0.31977482439214888
aF0.30916789123765259
aF0.61457938025639181
aF0.47624157506141196
aF0.89486539546021926
aF0.78315374035569107
aF0.52133570467764567
aF0.95861517997272871
aF0.77789693590833975
aF0.54839943810977509
aF0.069242083982736596
aF0.72353332047140739
aF0.437803601680607
aF0.10588764068514646
aF0.58808076356236216
aF0.32771885583250088
aF0.19438706758111168
aa(lp255
F0.54007620282801394
aF0.33751474091102507
aF0.35083225190215239
aF0.16704301137587571
aF0.5431435236234865
aF0.84961829840773717
aF0.40643670614396488
aF0.56669154210161121
aF0.94402439856915876
aF0.52737242214276114
aF0.51542249791930073
aF0.068756923694116567
aF0.62845555210492543
aF0.34589047430251624
aF0.11464072475245282
aF0.5565245300791053
aF0.22586682955576212
aF0.44519588595755405
aa(lp256
F0.21952719840765905
aF0.41228839354336311
aF0.31617318330333238
aF0.12670618750329846
aF0.66567490112013439
aF0.56412056114744358
aF0.11922300119041596
aF0.69368862691169653
aF0.88890961722028317
aF0.18979594354328783
aF0.51542249791930073
aF0.068756923694116567
aF0.25517334431300376
aF0.19762951584280986
aF0.16827008455912884
aF0.2619831247016538
aF0.16826460412359806
aF0.44519588595755405
aa(lp257
F0.43746063953162895
aF0.55989085911841852
aF0.27534194258202599
aF0.12670618750329846
aF0.61198365653891418
aF0.56412056114744358
aF0.1800584785817087
aF0.71157985333116858
aF0.95742210277078832
aF0.29082193476146734
aF0.58559085259852162
aF0.075333656521810691
aF0.50645385226522321
aF0.22654810385730983
aF0.1285252689613493
aF0.79963435538799199
aF0.79681126417199166
aF0.41576720422905539
aa(lp258
F0.77028406827109286
aF0.44503389405761778
aF0.30455952466973513
aF0.62583594286897615
aF0.26240790365516953
aF0.79577574843181531
aF0.56542809590628229
aF0.4925779258391092
aF0.96973742565938936
aF0.7568912438674158
aF0.51694175414665466
aF0.075333656521810691
aF0.69642780482300692
aF0.50072177588497424
aF0.10134394424436065
aF0.79963435538799199
aF0.79681126417199166
aF0.1785763040404047
aa(lp259
F0.80262327235635189
aF0.31670400530812465
aF0.29724744334864367
aF0.56840242819748343
aF0.18336854485888343
aF0.79577574843181531
aF0.78633308256817092
aF0.4752383509614041
aF0.95857919977515182
aF0.75053183488042374
aF0.40294056621345664
aF0.068163147519441344
aF0.79879394116253433
aF0.49573572436982749
aF0.11507089540687516
aF0.82304300362422811
aF0.6759043785450376
aF0.1785763040404047
aa(lp260
F0.54251305225996316
aF0.38816917385871152
aF0.29368836631285411
aF0.0034648834828324461
aF0.18336854485888343
aF0.70102714843023817
aF0.33588173401264271
aF0.59951879980497236
aF0.94565542979268047
aF0.51602168986524832
aF0.505119525754539
aF0.069347291961189036
aF0.54110933995212884
aF0.38313969269706721
aF0.11135099410290944
aF0.82304300362422811
aF0.6759043785450376
aF0.34784434823683325
aa(lp261
F0.24089219658323213
aF0.38257944208100486
aF0.2916298106180078
aF0.0034648834828324461
aF0.61787062983475383
aF0.70102714843023817
aF0.068603189938966053
aF0.64299000863957545
aF0.95180918057952013
aF0.24437150224222332
aF0.51542249791930073
aF0.068756923694116567
aF0.33319287934362363
aF0.16078813026175287
aF0.1031463090071669
aF0.26738049547909326
aF0.18782667426351046
aF0.34784434823683325
aa(lp262
F0.0083893819203719605
aF0.39915728172066145
aF0.29908325842217598
aF0.15676379571009816
aF0.83151792757688148
aF1
aF0.0029687316056126456
aF0.73773997902907595
aF0.99515605793628192
aF0.0083306392105189642
aF0.51542249791930073
aF0.068756923694116567
aF0.011793946336553132
aF0.0099182359280314391
aF0.063970248499813503
aF0.010183199891916329
aF0
aF0.059855070868747695
aaa(lp263
(lp264
F0.40387755472631204
aF0.48986258483268236
aF0.29595503292637065
aF0.14578186322755551
aF0.42534132164460653
aF0.77126804244699887
aF0.10476378442274159
aF0.51253487431141553
aF0.8728379149545995
aF0.27947849709491362
aF0.54085387396211249
aF0.068756923694116567
aF0.53513864099172948
aF0.59566938627520871
aF0.16941992220104024
aF0.56853607701943931
aF0.55701413640582953
aF0.34549355226610406
aa(lp265
F0.76800361249946369
aF0.36511905564375258
aF0.29329746620273489
aF0.496514685179411
aF0.31508557139423132
aF0.78860613120018375
aF0.43372911913518097
aF0.40400302603766408
aF0.91077374941880151
aF0.72337693638643563
aF0.21054315024827797
aF0.047929076497312317
aF0.87662513721268542
aF0.99136496018330378
aF0.1481635684626896
aF0.76166965583161916
aF0.56340451431912564
aF0.21782506920092576
aa(lp266
F0.83135547133738907
aF0.36923130740734178
aF0.31558060227873364
aF0.59335375616834396
aF0.31508557139423132
aF0.89008311484095415
aF0.59959814799581479
aF0.416654856769543
aF0.95709012885932987
aF0.72816189397878806
aF0.41347118209796202
aF0.067968197094115071
aF0.90577681166491342
aF0.42356951970460677
aF0.092802981557353809
aF0.80597444040404909
aF0.8434251153381912
aF0.29286557135120117
aa(lp267
F0.59721905863504876
aF0.40688502140568372
aF0.31729508038757043
aF0.38257026632645896
aF0.35112119468366559
aF0.77998645112080778
aF0.43146864936010021
aF0.60727540843573136
aF0.9644176192002718
aF0.56205434786090003
aF0.57933997604242526
aF0.071294616255577703
aF0.5749849342174036
aF0.18417470529424024
aF0.12203654019795414
aF0.80597444040404909
aF0.8434251153381912
aF0.29286557135120117
aa(lp268
F0.29026523960623668
aF0.48017125324561882
aF0.26996979858752512
aF0.15564208124553175
aF0.69855758151430325
aF0.54254617106035696
aF0.17912449710509087
aF0.72343145544578924
aF0.77745297352790521
aF0.23217284788868903
aF0.55136276000944517
aF0.068756923694116567
aF0.28926653286779647
aF0.12117772204848294
aF0.17672608289565317
aF0.39769288574989126
aF0.37812504955491111
aF0.50073813926091737
aa(lp269
F0.40777600228694877
aF0.44947994257381352
aF0.27199697309509252
aF0.15564208124553175
aF0.42650810408464612
aF0.54254617106035696
aF0.19992258436496207
aF0.59035020309902564
aF0.87018478699317448
aF0.28761346802464488
aF0.51542249791930073
aF0.068756923694116567
aF0.40578617001312633
aF0.36082395484304453
aF0.13992348165195417
aF0.5382363710606185
aF0.57681122900664006
aF0.50073813926091737
aa(lp270
F0.68976015239040489
aF0.3808552049682164
aF0.29742350587351024
aF0.38310839393252338
aF0.42650810408464612
aF0.84207870073798885
aF0.62259353734854384
aF0.44553892558469804
aF0.95982838579695196
aF0.71165172103376462
aF0.59951950026639567
aF0.074477728992878009
aF0.69309334515827381
aF0.35270096793788219
aF0.11579501238850548
aF0.5382363710606185
aF0.57681122900664006
aF0.18261800532026595
aa(lp271
F0.81722597306285572
aF0.40112861316661508
aF0.31303631738365872
aF0.55695072779674615
aF0.34613675367973129
aF0.87737363667720825
aF0.82540200758765614
aF0.56647360352788612
aF0.96997789669040324
aF0.76892088143688209
aF0.59951950026639567
aF0.072827454915514053
aF0.80592962271022472
aF0.30026897850872064
aF0.090241351840733286
aF0.6350467642266352
aF0.63970076553408139
aF0.23158491091471184
aa(lp272
F0.54847974974057467
aF0.34887342849774461
aF0.30236962924176569
aF0.11143021981303154
aF0.34613675367973129
aF0.87737363667720825
aF0.32198700680885739
aF0.58425477597045328
aF0.95322495179799571
aF0.50802436277461971
aF0.51302781631236227
aF0.068654123502058517
aF0.50175135559762984
aF0.26558518567349265
aF0.10942908051175834
aF0.6350467642266352
aF0.63970076553408139
aF0.23158491091471184
aa(lp273
F0.23958746032800721
aF0.41461785373414595
aF0.31956681526821212
aF0.11143021981303154
aF0.52866750384326533
aF0.4933495218748527
aF0.098015560911041688
aF0.61747231586916329
aF0.87732587891051961
aF0.14997018358032999
aF0.51542249791930073
aF0.068654123502058517
aF0.26435223025072652
aF0.17283212610908408
aF0.18789283467095069
aF0.40374856778713097
aF0.47467491798944084
aF0.64597151671947262
aa(lp274
F0.28106248736106526
aF0.50664750227898669
aF0.35210932820272417
aF0.13407002729998285
aF0.52866750384326533
aF0.4933495218748527
aF0.097856483698179619
aF0.66842308747725732
aF0.8664151928906263
aF0.22502022599862681
aF0.58210981359579783
aF0.062668239458269132
aF0.301293199594454
aF0.39952063853611491
aF0.20913230875051461
aF0.40374856778713097
aF0.47467491798944084
aF0.64597151671947262
aa(lp275
F0.44032594479014409
aF0.53324431693196861
aF0.32884279804940886
aF0.62905538254100357
aF0.71190548685756816
aF0.85028885067320958
aF0.44359889362325622
aF0.7004249607863321
aF0.90918320487383941
aF0.37778281921575557
aF0.72155042791324264
aF0.056579555222421696
aF0.40564806297735778
aF0.32318089172577341
aF0.16014272504504162
aF0.30710836160847721
aF0.21361715733825321
aF0.25042734204898937
aaa(lp276
(lp277
F0.39075833007061123
aF0.44744240674933156
aF0.24791443627644016
aF0.078558492775949867
aF0.41709172496277758
aF0.12357614201565514
aF0.14988269157811501
aF0.66696283044783711
aF0.89482692412078313
aF0.31860185689502435
aF0.51542249791930073
aF0.068756923694116567
aF0.41474520704700391
aF0.38106705053277196
aF0.15080062643935926
aF0.55718577690955351
aF0.36789135178756383
aF0.72854158384148793
aa(lp278
F0.85251597936787682
aF0.5421268574417295
aF0.20152200151166549
aF0.55134262648339372
aF0.12227648192092644
aF0.12357614201565514
aF0.5785239483274961
aF0.33632882600295988
aF0.94831683234072639
aF0.63720704972748277
aF0.57983786503360113
aF0.073343442654465754
aF0.90016662395060454
aF0.69795737431650196
aF0.098281523840899915
aF0.91200478365467841
aF0.90413528035808688
aF0.16186787079360815
aa(lp279
F0.90588981584732609
aF0.39620861203172175
aF0.30537543746197582
aF0.5749176490288227
aF0.12227648192092644
aF0.9062084651086475
aF0.51298948889254437
aF0.2565658101020788
aF0.9644983503163489
aF0.70947001029671697
aF0.3830769933521202
aF0.078292020256636535
aF1
aF1
aF0.10157201027018056
aF0.91200478365467841
aF0.90413528035808688
aF0.15836304826127895
aa(lp280
F0.52418101207685319
aF0.26255233791051558
aF0.31841605102663095
aF0.098670625982838656
aF0.21334370132962144
aF0.82268317843004879
aF0.3152981100958136
aF0.41072062815799931
aF0.95202778366357954
aF0.3602922792852824
aF0.59013968660975147
aF0.07436398092010596
aF0.59082071347958565
aF0.42735727619408509
aF0.13154120506966838
aF0.60831077749101858
aF0.48808407979044449
aF0.19039719112973966
aa(lp281
F0.26551269046666348
aF0.39789982042428185
aF0.27774639307158255
aF0.098670625982838656
aF0.33656136943715342
aF0.25544965471268055
aF0.055083663792650034
aF0.63349855093100882
aF0.83708932420806326
aF0.17063944182877855
aF0.55985393622608604
aF0.068756923694116567
aF0.2682500107481498
aF0.23672605713809694
aF0.15748247066962284
aF0.60831077749101858
aF0.46297707062187238
aF0.80234463446190496
aa(lp282
F0.44608417653578891
aF0.47931033127564493
aF0.24856815881353822
aF0.13385953515132287
aF0.29079907272206873
aF0.25544965471268055
aF0.079307645508414543
aF0.49987488067410246
aF0.84396810569533676
aF0.22932465200031321
aF0.55985393622608604
aF0.061676287697521731
aF0.60812439399881024
aF0.55798321663043504
aF0.11928087755884981
aF0.65299862436568556
aF0.7347495283908031
aF0.80234463446190496
aa(lp283
F0.805077846550316
aF0.48334510556908605
aF0.29240722470153813
aF0.36840592525364579
aF0.1503726097530218
aF0.85207346972808196
aF0.60388478798542455
aF0.47686836911454727
aF0.9619786609862313
aF0.78877177568478973
aF0.66068524959694896
aF0.059103316695154312
aF0.75339891691384409
aF0.63771608621566023
aF0.10424636469206124
aF0.93267458415932303
aF0.7347495283908031
aF0.18177306631495849
aa(lp284
F0.83172402863000972
aF0.4270111349217377
aF0.31113142279595196
aF0.70420732497141469
aF0.1503726097530218
aF0.89915084406851697
aF0.86202940873269318
aF0.58543179819753821
aF0.9654969241664606
aF0.73373319513702939
aF0.50143711532337043
aF0.060161412598830663
aF0.68274318320584992
aF0.53181580154619723
aF0.11009640392240377
aF0.93267458415932303
aF0.66547444406973411
aF0.16585361611454655
aa(lp285
F0.49013324156596039
aF0.33249956488183907
aF0.32334651923786634
aF0.1704415455294179
aF0.40708242774194925
aF0.88795006836624901
aF0.32998692734324497
aF0.56574746649331487
aF0.9666696785598704
aF0.34250061775346452
aF0.47538974147813318
aF0.068756923694116567
aF0.52447796740917019
aF0.19132290645518943
aF0.12764652161343143
aF0.57239001310371762
aF0.34542482362010041
aF0.18652189402429439
aa(lp286
F0.2063487639864337
aF0.38643762161956019
aF0.20366512252675925
aF0.069766238728141847
aF0.40708242774194925
aF0.081193113054292998
aF0.028454315588940571
aF0.71833536227396089
aF0.95388026948828231
aF0.23901381879882388
aF0.51542249791930073
aF0.068756923694116567
aF0.26962902781923592
aF0.16302682257051748
aF0.11099443967108431
aF0.27443717874657392
aF0.25358085025682131
aF0.8740169776722515
aa(lp287
F0.4320764958915283
aF0.4780018560179165
aF0.19000211729377725
aF0.069766238728141847
aF0.54368197286302278
aF0.081193113054292998
aF0.19034020124596368
aF0.66157064023349021
aF0.95413157259725534
aF0.37554312717220345
aF0.51542249791930073
aF0.068756923694116567
aF0.52552715643162395
aF0.31186450723805242
aF0.081624184709803191
aF0.57509007109161192
aF0.50627024178888747
aF0.8740169776722515
aa(lp288
F0.73198605337132283
aF0.41519289957834082
aF0.30221077968979954
aF0.51778930588376537
aF0.40524160841702456
aF0.93550428975986155
aF0.56141305200207969
aF0.43289045027199186
aF0.96887340839671487
aF0.67530805726537346
aF0.48935549410895357
aF0.059040441301545135
aF0.78889120592145101
aF0.55265196119427984
aF0.083979522546609273
aF0.58944213132073142
aF0.50627024178888747
aF0.14781512072584999
aa(lp289
F0.82550017424310185
aF0.41135755900574877
aF0.30900419412761099
aF0.61879416995079506
aF0.40524160841702456
aF0.97313526120578586
aF0.72356029461740756
aF0.45872478595586036
aF0.97989333271854795
aF0.84238017806054599
aF0.44702260068305105
aF0.069625959505894328
aF0.92934243342138911
aF0.66577674581033264
aF0.085815066118752475
aF0.58944213132073142
aF0.45924135335267696
aF0.10916989861480664
aaa(lp290
(lp291
F0.10557519373739291
aF0.4142098325155108
aF0.34448233136737999
aF0.050490232806347179
aF0.76236451622562795
aF0.088169459815122697
aF0.075872913712089513
aF0.72226699504220637
aF0.96774957927944505
aF0.10655797264507051
aF0.53837802661835954
aF0.063778596998410791
aF0.11729107934059366
aF0.054698573764606566
aF0.10877013931607513
aF0.099286794024260105
aF0.091865411140998818
aF0.900344359982298
aa(lp292
F0.09835132479296757
aF0.41789858700642712
aF0.367235872221502
aF0.050490232806347179
aF0.76236451622562795
aF0.9474523787507434
aF0.075760152495193717
aF0.70981582196036319
aF0.95700978833586858
aF0.10007448208066187
aF0.51542249791930073
aF0.059872635508447035
aF0.12903618838890674
aF0.11946826537258898
aF0.063970248499813503
aF0.10239946031119113
aF0.10300626294610084
aF0.62116854511634534
aa(lp293
F0.1080024949476393
aF0.44094009029032166
aF0.38044176638513044
aF0.075374480871523833
aF0.76700817498996998
aF0.8786364137517475
aF0.088303110893620695
aF0.73067989476416639
aF0.94182648554401593
aF0.12145422129356533
aF0.51542249791930073
aF0.068756923694116567
aF0.11988613232082174
aF0.12072283156302449
aF0.12868283694808091
aF0.10239946031119113
aF0.10300626294610084
aF0.62116854511634534
aa(lp294
F0.11999759726135129
aF0.43347627242691017
aF0.31898004973158994
aF0.18300482722139322
aF0.78617227161222614
aF0.8786364137517475
aF0.1031375785048641
aF0.73121777590639825
aF0.98574630095600768
aF0.13160027761912657
aF0.51542249791930073
aF0.068756923694116567
aF0.12039110040459325
aF0.070458766795758687
aF0.12464748435487522
aF0.11217152306515399
aF0.12938394856806185
aF0.17962338675095305
aa(lp295
F0.13256113388652169
aF0.41991213928435955
aF0.3310628871412632
aF0.19086759883149618
aF0.7699142463427906
aF0.92862656758795958
aF0.11656833193167965
aF0.69866463985764138
aF0.9885680480912149
aF0.13421899061746723
aF0.53859942764972746
aF0.081837370496571818
aF0.13691187377212866
aF0.099000726505007075
aF0.099970462058000115
aF0.11217152306515399
aF0.12938394856806185
aF0.13183571694141419
aa(lp296
F0.15813185722324352
aF0.39448956426939852
aF0.31350059329651542
aF0.25414363608143697
aF0.7699142463427906
aF0.047377459476211525
aF0.17842614708041904
aF0.68500637139550125
aF0.98511927880921213
aF0.15984130194873986
aF0.5099272538781503
aF0.085064596500326065
aF0.1532714533069913
aF0.088450313255460891
aF0.095216674839238999
aF0.1209037732985912
aF0.10895650872871715
aF0.95742021843554248
aa(lp297
F0.14258550462331143
aF0.40264410188688288
aF0.29433190940222292
aF0.27757211357773293
aF0.78692325813887354
aF0.047377459476211525
aF0.13637382278920218
aF0.70709653211119239
aF0.95605383436188141
aF0.13043674920182363
aF0.51814148503594304
aF0.080218538061322189
aF0.13253074510381219
aF0.07425390867666487
aF0.094478610545299824
aF0.1209037732985912
aF0.10895650872871715
aF0.95742021843554248
aa(lp298
F0.10400221400792173
aF0.41826704724485908
aF0.27925724398783958
aF0.13597054001046655
aF0.7830185659353962
aF0.95003765211890934
aF0.10886492717415833
aF0.7358396565569234
aF0.96329338495816152
aF0.11273766673694331
aF0.53245666771700428
aF0.062188836512745496
aF0.1073620032452835
aF0.069765433724733553
aF0.075724970950017845
aF0.081085505632931154
aF0.068719477575272414
aF0.091493896133914662
aa(lp299
F0.10725969137237429
aF0.41257143348388664
aF0.28534108534384989
aF0.13597054001046655
aF0.7731776843679703
aF0.78567415778490513
aF0.080592918799717417
aF0.73215809152343203
aF0.96150023232410087
aF0.13209413649086732
aF0.53281502956540605
aF0.052878327977041846
aF0.11827437395322829
aF0.062663531281417939
aF0.074984770577326887
aF0.081648117093404471
aF0.068719477575272414
aF0.30899513946105206
aa(lp300
F0.11250845518446972
aF0.40559415565490758
aF0.30631552569826914
aF0.20287528773187125
aF0.75908286080342102
aF0.78567415778490513
aF0.074444206630447846
aF0.71333945285578837
aF0.94785233560965088
aF0.10365109383327432
aF0.53262027997940853
aF0.068756923694116567
aF0.11841793649270382
aF0.06687447091063628
aF0.13053867389693014
aF0.12286427813510348
aF0.094695763579422818
aF0.30899513946105206
aa(lp301
F0.096949521387546589
aF0.41584050747939211
aF0.31783215784868746
aF0.14510048569079795
aF0.75908286080342102
aF0.84438803133363549
aF0.063517164377388274
aF0.72450322786707622
aF0.96666553650142406
aF0.090249816851236828
aF0.52548685660309802
aF0.070556516723985024
aF0.10456510358821966
aF0.073707834974552536
aF0.10992184050390838
aF0.12286427813510348
aF0.094695763579422818
aF0.22696945371204316
aa(lp302
F0.092927097818406496
aF0.4500254012186633
aF0.29467172882953291
aF0.14510048569079795
aF0.76825303654002097
aF0.90460449222285688
aF0.049466468541751768
aF0.73773997902907595
aF0.97535929997033655
aF0.087664726276513269
aF0.53274713301151966
aF0.069656720209050796
aF0.094259429291065649
aF0.12003831842095732
aF0.073720374501512989
aF0.12661655081485582
aF0.1339983373465127
aF0.12614746372990496
aa(lp303
F0.11275107397923695
aF0.49128924055817835
aF0.25268599862666885
aF0.1797138560374219
aF0.76825303654002097
aF0.90460449222285688
aF0.066764980277940617
aF0.75192349060526031
aF0.93041512801414572
aF0.086816856702412862
aF0.62506301991819657
aF0.047357838099162247
aF0.12622087321814393
aF0.12003831842095732
aF0.070247229170439074
aF0.12661655081485582
aF0.1339983373465127
aF0.12392997115279206
aaa(lp304
(lp305
F0.10698357829972696
aF0.44078065003720401
aF0.35882214375636756
aF0.1931985795802145
aF0.78904315195288044
aF0.16227808479732853
aF0.085870952116009841
aF0.73773997902907595
aF0.97243279698888851
aF0.10854028964993558
aF0.54337665205486874
aF0.060476000335507124
aF0.11422562648217247
aF0.08728820065671293
aF0.079158822238641138
aF0.09626288525350496
aF0.10233787296291876
aF0.98563658881416227
aa(lp306
F0.10232167604601458
aF0.44967337724707107
aF0.44365639001147911
aF0.098558915389594492
aF0.80271114074205485
aF0.92029619151808006
aF0.084017839965360275
aF0.73773997902907595
aF0.97977587512183129
aF0.1228002529180091
aF0.51657850188289922
aF0.068756923694116567
aF0.11422562648217247
aF0.084342951338527344
aF0.079069552154482442
aF0.089003283753343876
aF0.10499362680272745
aF0.98563658881416227
aa(lp307
F0.11826205249189484
aF0.42124846362404084
aF0.32915781964943386
aF0.098558915389594492
aF0.77821475391062889
aF0.92029619151808006
aF0.12869029501242629
aF0.72163566717564331
aF0.97834740789302077
aF0.12017591416339811
aF0.51542249791930073
aF0.072764343450166913
aF0.11989404960138664
aF0.071609410162468315
aF0.094899955318951706
aF0.1188483872956119
aF0.10499362680272745
aF0.20360696022440347
aa(lp308
F0.14953295819388812
aF0.39710957999295976
aF0.30284374194361385
aF0.28103198007176167
aF0.76675865940689847
aF0.95217857060203792
aF0.13107482027416095
aF0.70623001624249748
aF0.96513955709768939
aF0.14387222141718897
aF0.52463403281991294
aF0.068921151991823193
aF0.14958374869295282
aF0.067688918918713717
aF0.097180176505107352
aF0.1188483872956119
aF0.059993582471551309
aF0.11406934886099787
aa(lp309
F0.15096991312905284
aF0.40230492012463515
aF0.18795612988720217
aF0.31388959723746757
aF0.76675865940689847
aF0.023903425512311283
aF0.16022954134298428
aF0.70505847965860835
aF0.97799626708704956
aF0.13920249376417348
aF0.53135753871272928
aF0.071752349465247917
aF0.13524913826195975
aF0.044776077540307838
aF0.089472368919734896
aF0.11275421924851717
aF0.059993582471551309
aF0.98964910204607404
aa(lp310
F0.14047707285077216
aF0.40558043043185144
aF0.19471214426822175
aF0.24102559124619091
aF0.7870170446263034
aF0.023903425512311283
aF0.16022954134298428
aF0.70797521989069334
aF0.97011402265845403
aF0.13920249376417348
aF0.53135753871272928
aF0.074567619307938302
aF0.1345527188778472
aF0.036692291616325569
aF0.089472368919734896
aF0.091293980840048389
aF0.075387687655598071
aF0.98964910204607404
aa(lp311
F0.12800605020389594
aF0.41613470002259106
aF0.40930738664422489
aF0.19297747996585382
aF0.77634953664950201
aF0.94568949630126797
aF0.11510718743188064
aF0.7108205332954155
aF0.96938965685566125
aF0.13305537287562946
aF0.51229441731502967
aF0.065399561266290984
aF0.14210976822765847
aF0.091602405763773334
aF0.075947262466567328
aF0.093383490700080313
aF0.098849424952116752
aF0.95538973302504759
aa(lp312
F0.11266842780928157
aF0.43097790158034111
aF0.50881978206128942
aF0.16966066010378184
aF0.77275714626853043
aF0.94568949630126797
aF0.083747442526421106
aF0.73155401854246205
aF0.97341035601723513
aF0.11525925975039146
aF0.5168926749581827
aF0.062291816384777009
aF0.11352347930105208
aF0.097427127004376571
aF0.069591873362289447
aF0.12923224493254101
aF0.14451550059519133
aF0.9604392241917441
aa(lp313
F0.13193551920766561
aF0.43748516021426859
aF0.40534904296686575
aF0.16966066010378184
aF0.73505389878267524
aF0.88196962809780077
aF0.094467461450322698
aF0.72937774922964249
aF0.97768526740455974
aF0.1404903986757326
aF0.52623246282969738
aF0.065919740156674622
aF0.12976362960012244
aF0.071234654565077118
aF0.064912598896110632
aF0.12923224493254101
aF0.14451550059519133
aF0.9604392241917441
aa(lp314
F0.14759580299996106
aF0.41685164018547438
aF0.29922803222663646
aF0.20785669407306445
aF0.73505389878267524
aF0.88196962809780077
aF0.11828194374420226
aF0.69902961568714572
aF0.95670379719862009
aF0.15744280659071602
aF0.56839472306338878
aF0.066499253172680087
aF0.1547004812614097
aF0.10920765326783897
aF0.10530351399505827
aF0.12648159160976902
aF0.14100118948643553
aF0.17694525441409964
aa(lp315
F0.13899806987783167
aF0.39432943248514613
aF0.19020464191463976
aF0.20477553637279533
aF0.75156480536024139
aF0.040038787963812661
aF0.11210470865642058
aF0.67503635095546866
aF0.96334257413508151
aF0.12715627655093498
aF0.5086676053792909
aF0.071038396200376788
aF0.15514626920981417
aF0.13361822732133161
aF0.084946622277774109
aF0.12355776143412298
aF0.089953433189346108
aF0.1341559641516093
aa(lp316
F0.12208721244371931
aF0.3927551060018486
aF0.073809634459060081
aF0.18945044846278053
aF0.77287624208055061
aF0.040038787963812661
aF0.1075370597392073
aF0.70317546868391412
aF0.99515605793628192
aF0.10672599231531844
aF0.51542249791930073
aF0.070114729875308479
aF0.14855670949170841
aF0.03919434294293684
aF0.072938573000121118
aF0.10076836285066071
aF0.07757693402901418
aF0.08178618362604699
aa(lp317
F0.015240730930029395
aF0.39915728172066145
aF0.29908325842217598
aF0.18945044846278053
aF0.83151792757688148
aF1
aF0.020909628186187412
aF0.73773997902907595
aF0.99515605793628192
aF0.01513401486399879
aF0.51542249791930073
aF0.068756923694116567
aF0.011950406376627906
aF0.0099182359280314391
aF0.063970248499813503
aF0.0071543533665746339
aF0
aF0.059855070868747695
aaa(lp318
(lp319
F0.13867637560290644
aF0.42281064171691107
aF0.27118579051258596
aF0.18185541904475605
aF0.69269125590855074
aF0.85396063528672217
aF0.10901966084560671
aF0.73123095945841743
aF0.9072584546752378
aF0.13442832552821055
aF0.57235077804702184
aF0.056546953104059536
aF0.13389178594680498
aF0.11442905092626041
aF0.091409952210222106
aF0.16664479510768018
aF0.10651540589502877
aF0.20181520426099819
aa(lp320
F0.13504936524184125
aF0.39662075929854118
aF0.26791107737299275
aF0.18185541904475605
aF0.69269125590855074
aF0.91188793685265479
aF0.11152808328342234
aF0.70656894970295159
aF0.96507934492426395
aF0.12833996333446462
aF0.52792078984412594
aF0.057718375747072247
aF0.11533298458993935
aF0.082885838552347643
aF0.06906179175387106
aF0.16664479510768018
aF0.075907393495949327
aF0.091108448454338908
aa(lp321
F0.12244463359994506
aF0.39414223253002756
aF0.29086462296017546
aF0.23048947638095169
aF0.78337231754045844
aF0.81681536659111864
aF0.10084150652358881
aF0.69800467834790914
aF0.96041227894253556
aF0.12497844072648874
aF0.52781289826325228
aF0.058889798390084958
aF0.12756981336988413
aF0.055939161238572024
aF0.096148279344544577
aF0.094248636695173943
aF0.084652952208309193
aF0.24480175425197784
aa(lp322
F0.11988938676794303
aF0.41758991683721219
aF0.30297267204314271
aF0.19946118299731114
aF0.78337231754045844
aF0.81681536659111864
aF0.087957654675892921
aF0.72155979882688037
aF0.95700721368538844
aF0.12490097400590432
aF0.51542249791930073
aF0.068756923694116567
aF0.13685621189135269
aF0.079890627722241495
aF0.099676816118555805
aF0.094248636695173943
aF0.084652952208309193
aF0.24480175425197784
aa(lp323
F0.11054207057380519
aF0.41122824661393076
aF0.31869909777348121
aF0.13137148387757888
aF0.74640089439749013
aF0.91293620917867557
aF0.081300014563951695
aF0.71751778351556861
aF0.99439487748337685
aF0.12110025897471118
aF0.51542249791930073
aF0.07486417119556911
aF0.11380981288053468
aF0.097398299375094796
aF0.089452368718402536
aF0.10513220990049302
aF0.094794429309285555
aF0.17485160731221408
aa(lp324
F0.12195677355804438
aF0.4226475211024609
aF0.23645192711018531
aF0.13137148387757888
aF0.74640089439749013
aF0.52391036824508119
aF0.064236226456155732
aF0.71454968425022336
aF0.9640081688809915
aF0.14400761955088492
aF0.51542249791930073
aF0.068756923694116567
aF0.1516755216040675
aF0.1091558888405214
aF0.082366863295245285
aF0.10513220990049302
aF0.12014215770762388
aF0.31189397015465958
aa(lp325
F0.13017813303303544
aF0.43284616044572455
aF0.21425433602285965
aF0.15653828480848664
aF0.77276183220349504
aF0.52391036824508119
aF0.14066425464931154
aF0.730003118146479
aF0.92776304260923403
aF0.13766791606368711
aF0.525665061232097
aF0.05304880480580685
aF0.12886466160341234
aF0.085445274848368391
aF0.10278345823266023
aF0.095539423473301549
aF0.12014215770762388
aF0.31189397015465958
aa(lp326
F0.12928964726195835
aF0.40544723595627463
aF0.28210537058857305
aF0.1230926361353013
aF0.75377913049812584
aF0.87532009506854558
aF0.1355267739134095
aF0.70381507710792013
aF0.97430311112338663
aF0.12716764111774415
aF0.51016964086074457
aF0.059755087899672536
aF0.11409128218013889
aF0.052703312041984446
aF0.068439393099375176
aF0.16645087407575115
aF0.14304069735015551
aF0.18053858303444212
aa(lp327
F0.13952387998964402
aF0.41866144061409122
aF0.29191435797332893
aF0.1230926361353013
aF0.75377913049812584
aF0.91074624862656139
aF0.097429562852894364
aF0.69728325668437252
aF0.97148726247425232
aF0.11295913172614773
aF0.51542249791930073
aF0.058896083002536431
aF0.13958123243007514
aF0.10207564939708415
aF0.066949678232854623
aF0.18871486780496341
aF0.17193393213816083
aF0.23157060388131531
aa(lp328
F0.12581072754484937
aF0.4309111923933851
aF0.33251091797848237
aF0.15664971156607951
aF0.75985998219271855
aF0.86743493229686952
aF0.071613659230985588
aF0.69787081059069378
aF0.9492710096243262
aF0.11295913172614773
aF0.5208585664714962
aF0.068756923694116567
aF0.14064838343683222
aF0.096625801448461737
aF0.13952718994693392
aF0.18871486780496341
aF0.17193393213816083
aF0.23157060388131531
aa(lp329
F0.11834242736119457
aF0.42748760224639415
aF0.33041229073669193
aF0.15664971156607951
aF0.7535659995358861
aF0.86743493229686952
aF0.053043455299659009
aF0.71443970760438269
aF0.98014640467958081
aF0.13482454051092374
aF0.53487308218599017
aF0.068756923694116567
aF0.13146083709176287
aF0.13072829208058964
aF0.10512113196985273
aF0.11599528294775166
aF0.11349823573844105
aF0.22511171149058221
aa(lp330
F0.12366096388309741
aF0.4215694287339844
aF0.31376172488159104
aF0.18875907204402242
aF0.7535659995358861
aF0.92532976985992199
aF0.093280490285138157
aF0.71250608219807232
aF0.98245984621811366
aF0.14200667637468073
aF0.51542249791930073
aF0.068756923694116567
aF0.12530168910571005
aF0.12255048951541635
aF0.10416383585670691
aF0.11599528294775166
aF0.084524019909990908
aF0.13593954240392334
aa(lp331
F0.12060877562921557
aF0.40745075681801501
aF0.30640886808991963
aF0.19752180975870953
aF0.76854856836857333
aF0.89746189527446618
aF0.11508692914302898
aF0.71217973210724694
aF0.94995483732612662
aF0.11129087629226313
aF0.51542249791930073
aF0.073150604022927473
aF0.12315804874256558
aF0.082227706797230377
aF0.10612831091464134
aF0.099220018467032961
aF0.057648841685998056
aF0.14201405583901194
aa(lp332
F0.12757381332149834
aF0.38379785854322956
aF0.29984440103414683
aF0.27695144465226074
aF0.78151632436727037
aF0.89746189527446618
aF0.13733594412503253
aF0.71590859636486037
aF0.95070587055912126
aF0.12119686925736804
aF0.49484489508364821
aF0.089914620476997373
aF0.12509226592712144
aF0.028194235420545236
aF0.099806658605304882
aF0.086206000438577207
aF0.057623223427194149
aF0.14201405583901194
aaa(lp333
(lp334
F0.10601956109539526
aF0.44007159760236669
aF0.31066731558331739
aF0.17464174923829798
aF0.77902496792831077
aF0.81580394933328881
aF0.078400523512558301
aF0.71511726680581778
aF0.9640185631425856
aF0.11147898808212915
aF0.52601734134122213
aF0.061553798241954678
aF0.1163517636079229
aF0.071323251442427293
aF0.1008583623396888
aF0.091822964445277738
aF0.17426679486706587
aF0.24743250897428648
aa(lp335
F0.11698219628637438
aF0.43055092024166258
aF0.26139258438954655
aF0.17464174923829798
aF0.76997631665341215
aF0.87084797355552102
aF0.12471732634854482
aF0.72212521932181428
aF0.95530143457028616
aF0.13970343425913384
aF0.51542249791930073
aF0.056188458236599917
aF0.11868043405557158
aF0.061230379373056885
aF0.075743333475691399
aF0.089046516769176465
aF0.092497334412846452
aF0.12573901967469431
aa(lp336
F0.15156636775339594
aF0.42079049356515907
aF0.28961987622558866
aF0.21400732340462944
aF0.76997631665341215
aF0.89133169199018025
aF0.1792976183802652
aF0.71295847292527637
aF0.95641740054157909
aF0.14652212267246006
aF0.50311173131178133
aF0.070247101273681792
aF0.13427406355946336
aF0.051073265091532441
aF0.083550901815689319
aF0.12383813956928283
aF0.10772327462490637
aF0.13627446982181393
aa(lp337
F0.14535682245749051
aF0.40054032747942092
aF0.306077795673943
aF0.22638347739436146
aF0.73390160963671691
aF0.90456317943056241
aF0.13418843601363178
aF0.70643669782456364
aF0.94645101432803669
aF0.13370876141524685
aF0.47971866016243303
aF0.081988686166750688
aF0.14200231678738684
aF0.12189000752142522
aF0.11675998137488064
aF0.12383813956928283
aF0.10772327462490637
aF0.13627446982181393
aa(lp338
F0.10357805929860073
aF0.4250305021264012
aF0.28632018992447789
aF0.038985226797948511
aF0.73390160963671691
aF0.89571729043789172
aF0.073031932963401575
aF0.71076180299910985
aF0.94017015037763629
aF0.12244878840489341
aF0.51542249791930073
aF0.068756923694116567
aF0.12779555880245597
aF0.12189000752142522
aF0.099586964694055952
aF0.12272873607595325
aF0.1167433123670812
aF0.13333794764765639
aa(lp339
F0.117138506554743
aF0.43110315187317605
aF0.28758826968777595
aF0.038985226797948511
aF0.75544519777943686
aF0.85641288706973051
aF0.14700965176588038
aF0.71995754383431465
aF0.96193376034871503
aF0.13260028160785303
aF0.51750163020726392
aF0.071626331040260824
aF0.1257164759323772
aF0.057049744870785644
aF0.091895259198573373
aF0.13291272732320125
aF0.1167433123670812
aF0.1927531815767127
aa(lp340
F0.15266199137602354
aF0.42281811395194846
aF0.28807080163737275
aF0.16724313473693728
aF0.75008521349221879
aF0.85641288706973051
aF0.15249677743129253
aF0.70970768075256763
aF0.96193376034871503
aF0.13733172455371728
aF0.5305995430703162
aF0.071626331040260824
aF0.15326161976388672
aF0.13499454607871336
aF0.081376420718480155
aF0.13655785849036617
aF0.11149420598288712
aF0.1927531815767127
aa(lp341
F0.15466714575979323
aF0.44586643928539049
aF0.26408955653496907
aF0.11378578988024404
aF0.75008521349221879
aF0.91471737724686453
aF0.1395249204756891
aF0.73163391588160309
aF0.95678708305601001
aF0.16588350989957318
aF0.54189662892560775
aF0.066241462930231504
aF0.16945068352749723
aF0.15578796805591857
aF0.066678310676887634
aF0.13655785849036617
aF0.13167435345131606
aF0.079942978912748944
aa(lp342
F0.1365662247973792
aF0.43967568282619057
aF0.32772156262650126
aF0.11378578988024404
aF0.7758990670840491
aF0.93343506204937776
aF0.1269929096429086
aF0.72588916810369242
aF0.9738518300215997
aF0.14988686234064125
aF0.52865956342245424
aF0.068180380976459259
aF0.14782171055533658
aF0.063850754392221001
aF0.068152148691855804
aF0.12460996465009
aF0.13167435345131606
aF0.34248063993542011
aa(lp343
F0.11286150804197351
aF0.40326968404479074
aF0.34049661875506532
aF0.16708873692409684
aF0.75019118379057004
aF0.89014353055843687
aF0.082896831134581628
aF0.72127084435363498
aF0.97193825270154421
aF0.10389065269859006
aF0.50174521847074582
aF0.068862224815552417
aF0.11782861787769264
aF0.052715954227099182
aF0.088363192937516891
aF0.12460996465009
aF0.11138349262511715
aF0.34248063993542011
aa(lp344
F0.091812734332344298
aF0.38544786303444045
aF0.32394112528598396
aF0.18096417978374124
aF0.75019118379057004
aF0.89014353055843687
aF0.06713988973509416
aF0.67929758814007268
aF0.99523371837589769
aF0.079297324129677674
aF0.49554226676636726
aF0.08102741936995389
aF0.095845961572641303
aF0.064201859747769582
aF0.092066452280029118
aF0.12235612749140082
aF0.10465230645888929
aF0.18611065311964003
aa(lp345
F0.095885948797009846
aF0.41153811623054154
aF0.3394040391001133
aF0.18096417978374124
aF0.79206643319405223
aF0.98370906712103989
aF0.061366482387406662
aF0.71521123082560356
aF0.99671360026705402
aF0.111226224477308
aF0.53513243536881461
aF0.082822444083687649
aF0.10773743791973622
aF0.058549892682177272
aF0.084983900871699769
aF0.083122348053275119
aF0.07474456941956889
aF0.15801124720011644
aa(lp346
F0.13462300607852443
aF0.40760870487662121
aF0.30787569093377354
aF0.34193243983634225
aF0.80189184607570707
aF0.98370906712103989
aF0.1513075770818893
aF0.7377583328400813
aF0.99213734803501763
aF0.12519508438434118
aF0.54673122298894372
aF0.074486227485649883
aF0.11551235204130753
aF0.045620387126974069
aF0.076193603721811734
aF0.083122348053275119
aF0.02303611939315189
aF0.080398737733953243
aaa(lp347
(lp348
F0.14100070070290646
aF0.41411884735446652
aF0.23643386142575878
aF0.25994606302318379
aF0.79982270463510197
aF0.54352312494456079
aF0.14936176317900579
aF0.7097038768438314
aF0.96477284142429043
aF0.13204430421613766
aF0.52556057449316995
aF0.05790755915364329
aF0.1258019837514287
aF0.044000702437165883
aF0.069341753871625569
aF0.11142109396143179
aF0.15384744401615086
aF0.13878570371489091
aa(lp349
F0.13102084303623271
aF0.41161367687074391
aF0.40787483016770365
aF0.25994606302318379
aF0.79982270463510197
aF0.94471688071161131
aF0.13409499161910299
aF0.71454679373309615
aF0.96477284142429043
aF0.11771636992940775
aF0.53582972643193472
aF0.05790755915364329
aF0.125164561820408
aF0.044000702437165883
aF0.07686873199322683
aF0.11003868164131467
aF0.077791941389016836
aF0.96639448543657336
aa(lp350
F0.1392329602161301
aF0.40944897784266987
aF0.42304811163066702
aF0.23533510942456801
aF0.74102570352988617
aF0.8969325833570736
aF0.13409499161910299
aF0.70853921184486135
aF0.96383878425768255
aF0.11771636992940775
aF0.50806573989462744
aF0.079147781048429802
aF0.125164561820408
aF0.079976559598769592
aF0.096210468523553777
aF0.16286460476556081
aF0.14162733683142167
aF0.96639448543657336
aa(lp351
F0.13436791549932522
aF0.39485780696864237
aF0.18982524575691689
aF0.231494288852052
aF0.74102570352988617
aF0
aF0.13216255506662489
aF0.70955993681569884
aF0.96765073545622338
aF0.12077153904329606
aF0.49314245888372116
aF0.080082711029609066
aF0.13221916573443432
aF0.053893371274524385
aF0.086479710026240303
aF0.16286460476556081
aF0.14162733683142167
aF1
aa(lp352
F0.11876036221898512
aF0.44756260754821497
aF0.16604509122114475
aF0.069993901241007822
aF0.79765374185455695
aF0
aF0.098018853613752066
aF0.71604962792336824
aF0.97724153949471693
aF0.11140354653658978
aF0.51542249791930073
aF0.070280370539406167
aF0.1472683613588735
aF0.13797235025870913
aF0.081051878126617238
aF0.12216394856369225
aF0.15679296566887121
aF1
aa(lp353
F0.13730446462446272
aF0.44347536211025773
aF0.28424483949355894
aF0.069993901241007822
aF0.79146371097546986
aF0.81385304504794465
aF0.12922541412674637
aF0.70959127285732293
aF0.98885953168336271
aF0.16900997664080097
aF0.52257478340175556
aF0.068936972357913073
aF0.15599596099246724
aF0.11134983287602368
aF0.081953983643982292
aF0.12216394856369225
aF0.15679296566887121
aF0.094033348410722112
aa(lp354
F0.13647770322022393
aF0.39263518161621436
aF0.29653661185066965
aF0.20749962720042511
aF0.73837710274024748
aF0.65358460445365951
aF0.1039337924059599
aF0.70285843410039028
aF0.97832169749456166
aF0.12979953367156338
aF0.51100171947909545
aF0.07622850332788543
aF0.13589126057139603
aF0.047578347162421292
aF0.094414370968163699
aF0.16449149986085218
aF0.13463507461825905
aF0.30345229975101168
aa(lp355
F0.12669310704323697
aF0.40423313411986661
aF0.27749367090193322
aF0.20749962720042511
aF0.73837710274024748
aF0.65358460445365951
aF0.098765494804503196
aF0.71362804686207315
aF0.97095166537113986
aF0.12601857465344796
aF0.51100171947909545
aF0.064689290129887153
aF0.12938092822548294
aF0.074147168676669803
aF0.073861919212098073
aF0.16449149986085218
aF0.13463507461825905
aF0.30345229975101168
aa(lp356
F0.11225612460429776
aF0.42826695570903439
aF0.41756006645282434
aF0.11345800284323876
aF0.77933664455617291
aF0.92123969477941803
aF0.097570314639404854
aF0.73213224111595332
aF0.96240008438434821
aF0.12580613780033284
aF0.54979939511594667
aF0.064689290129887153
aF0.12764848909883431
aF0.09633448330775482
aF0.085865214799477535
aF0.096020530456623787
aF0.06120912123910157
aF0.97929469225997279
aa(lp357
F0.11676242232839609
aF0.41919149028875102
aF0.43126201317489699
aF0.11345800284323876
aF0.76532450831449927
aF0.13753549689243816
aF0.09901257048928841
aF0.7215866291595896
aF0.94464960050088176
aF0.11449066391301678
aF0.51879670679590439
aF0.078782472313603524
aF0.12291273976283096
aF0.10630171631217848
aF0.13443083019872609
aF0.11458887756653191
aF0.093063171420211407
aF0.97929469225997279
aa(lp358
F0.13973705728051281
aF0.40933536453289754
aF0.15060119757025278
aF0.17633540239546053
aF0.76532450831449927
aF0.13753549689243816
aF0.13400943376509089
aF0.68601385945889748
aF0.90363329917167856
aF0.12778502409184006
aF0.51725479275181618
aF0.078782472313603524
aF0.16126963282823614
aF0.12882748899168792
aF0.12607250264582104
aF0.11458887756653191
aF0.093063171420211407
aF0.91871636245300281
aaa(lp359
(lp360
F0.13470286826196851
aF0.42015014252306354
aF0.33198929444920516
aF0.24077047939878882
aF0.77364093559737956
aF0.92587531651364097
aF0.12161200367296909
aF0.71073847871716855
aF0.97289677174269473
aF0.13231279642287219
aF0.52438640679452475
aF0.063530674007036436
aF0.14372188667248711
aF0.10830557294901973
aF0.098383915679223763
aF0.10733413142171158
aF0.12570916391769443
aF0.32260839133103736
aa(lp361
F0.12057807009030636
aF0.39225097949887794
aF0.27847810930971767
aF0.24077047939878882
aF0.77849004446911807
aF0.92587531651364097
aF0.11556201274867645
aF0.70035108898393994
aF0.96829017907301307
aF0.11599619397340045
aF0.50141534422630385
aF0.058125187373648669
aF0.11324051171795019
aF0.046229578672755983
aF0.066926618422336964
aF0.10797873377394826
aF0.071795711486746197
aF0.11171191409124735
aa(lp362
F0.12934580231348183
aF0.42060582922856377
aF0.32096524000678395
aF0.11813318687119415
aF0.78079450866315847
aF0.84299522795595139
aF0.14464846508305718
aF0.71460621804183999
aF0.96213590235626201
aF0.12999495559659907
aF0.5103866075157939
aF0.042871127282111815
aF0.12516769512644452
aF0.079432174121734242
aF0.072871112343598624
aF0.10797873377394826
aF0.1001095201528054
aF0.431837108136301
aa(lp363
F0.12929846396060846
aF0.42188073411083032
aF0.33936286749307215
aF0.11813318687119415
aF0.77959314382276057
aF0.84299522795595139
aF0.13183179132878114
aF0.71476221587390265
aF0.95988358055283807
aF0.1313132042800319
aF0.52881983624876094
aF0.068756923694116567
aF0.12964690691928721
aF0.079432174121734242
aF0.1101654089306259
aF0.10310964699930925
aF0.1001095201528054
aF0.431837108136301
aa(lp364
F0.12287553077954069
aF0.4109393191126548
aF0.293161322462626
aF0.029948037438744655
aF0.7594054177582914
aF0.80922051086191193
aF0.10432143458225951
aF0.67936156552020377
aF0.98935407324327063
aF0.10625750601370919
aF0.51542249791930073
aF0.068756923694116567
aF0.13302984238409632
aF0.11784537762686022
aF0.10124173048908838
aF0.15147780268306529
aF0.16281027401828876
aF0.10986895729419308
aa(lp365
F0.11954993706180284
aF0.41767955931883854
aF0.2878882242546536
aF0.029948037438744655
aF0.7594054177582914
aF0.80922051086191193
aF0.10939771081856522
aF0.70137386869890017
aF0.97248076703791997
aF0.12201512249457953
aF0.51900564995426168
aF0.067250253783493072
aF0.12722651734079321
aF0.083983571002669982
aF0.097177841250670305
aF0.15147780268306529
aF0.16281027401828876
aF0.17431674081529569
aa(lp366
F0.12771761454959421
aF0.39985350497202887
aF0.29334400274790473
aF0.23245250844750975
aF0.78568069036563148
aF0.14579974087782444
aF0.12462653952748243
aF0.68979871797750192
aF0.95628870313815129
aF0.12243740443724797
aF0.51435375989309573
aF0.046705175098997798
aF0.12445273679250021
aF0.074608321625575985
aF0.13334212206683604
aF0.12385934355182021
aF0.10233422269960234
aF0.81487170424219557
aa(lp367
F0.12930973519975772
aF0.40141186174888344
aF0.28146995883873932
aF0.24275450760619197
aF0.77809255966289448
aF0.14579974087782444
aF0.117298738124337
aF0.70898620116119504
aF0.97078435576376021
aF0.12378408406702417
aF0.49667636423615391
aF0.052809027927103736
aF0.13025361049616219
aF0.078848259009457147
aF0.069780980897972023
aF0.12385934355182021
aF0.10233422269960234
aF0.81487170424219557
aa(lp368
F0.13128582540708231
aF0.41525833811371249
aF0.31887037259815282
aF0.19224508601850779
aF0.77550593999058415
aF0.94384034269319561
aF0.15027976071103577
aF0.72759431318252765
aF0.97225730219973383
aF0.13219801210887189
aF0.52216889709262471
aF0.059568435970696165
aF0.11715885173810717
aF0.078848259009457147
aF0.074721180606785925
aF0.12032271967130329
aF0.075070884228474716
aF0.29077077641219512
aa(lp369
F0.14116729360738137
aF0.41104351511041648
aF0.33388590935306905
aF0.19224508601850779
aF0.77550593999058415
aF0.94384034269319561
aF0.17061226080481473
aF0.70829198796071147
aF0.95819146150309575
aF0.13255001422981749
aF0.51542249791930073
aF0.072362222870567136
aF0.11468433555153704
aF0.060684526467592162
aF0.1043455113207116
aF0.12965840205661047
aF0.10395033831996646
aF0.29077077641219512
aa(lp370
F0.13298820326303579
aF0.40218916044788572
aF0.31172827146974724
aF0.24469627021407644
aF0.7942538031143247
aF0.95050968347097997
aF0.13553397208089812
aF0.69782860730826024
aF0.99689440805536422
aF0.1253694058280066
aF0.49028477131546094
aF0.079686138955912311
aF0.12067149845503145
aF0.070136901888316866
aF0.082801544027149759
aF0.12965840205661047
aF0.10395033831996646
aF0.10029376945004836
aa(lp371
F0.11880895522049917
aF0.39076265782619379
aF0.32494650875600201
aF0.24469627021407644
aF0.78394530392835371
aF0.95427449120427987
aF0.10309565550541666
aF0.69366356393008943
aF0.99903807205325745
aF0.11647374959155755
aF0.5072232896653901
aF0.079686138955912311
aF0.12225188885806826
aF0.075852287467197674
aF0.089983630289323505
aF0.089058743198241891
aF0.065023446876416091
aF0.14006725707482365
aa(lp372
F0.12449859262654256
aF0.40282411680393737
aF0.30457876595403366
aF0.22742743919602787
aF0.77440922729346684
aF0.16787432784635081
aF0.10309565550541666
aF0.70096437932271738
aF0.96686107495771811
aF0.11454536977032716
aF0.54090238384725775
aF0.075460196844837304
aF0.13013960547605116
aF0.08015810110552446
aF0.094505693534486471
aF0.1135752909454634
aF0.059270977298689777
aF0.87120171015883674
aa(lp373
F0.13571489468987685
aF0.42370373233935837
aF0.42345817404563779
aF0.13527956840596334
aF0.77440922729346684
aF0.16787432784635081
aF0.11828864179144649
aF0.69820751175446727
aF0.93668087823223967
aF0.13325636812184533
aF0.51572221923433803
aF0.068756923694116567
aF0.16862342529246641
aF0.098759019378185584
aF0.11815625142111198
aF0.1135752909454634
aF0.14406775375812791
aF0.87120171015883674
aa(lp374
F0.12579102735094247
aF0.43586053997140567
aF0.72894525057895176
aF0.13527956840596334
aF0.78967464412884858
aF0.94527522137720832
aF0.12835159912974109
aF0.69180726346971799
aF0.98053726301027133
aF0.14465777725947493
aF0.4789004535526134
aF0.09787720191344973
aF0.13750325876282044
aF0.082978832294939298
aF0.30225306022418164
aF0.10795332809912211
aF0.14406775375812791
aF0.79957108425204027
aaa(lp375
(lp376
F0.13691073665175948
aF0.4372980625066466
aF0.25066803057666642
aF0.19424385101455932
aF0.74048362456066563
aF0.62348106502616996
aF0.11135028643895345
aF0.69851248769513585
aF0.96104635409637407
aF0.13338789432855802
aF0.53930556060272428
aF0.062242507559576728
aF0.15224170848099619
aF0.15521633381857391
aF0.07472338890344285
aF0.13291518248688466
aF0.10975552450883569
aF0.16663314906181403
aa(lp377
F0.12635582063930106
aF0.42081106680715019
aF0.19427522746456255
aF0.12354919937576531
aF0.79281073378535361
aF0.098104849488172219
aF0.12142249834408253
aF0.70903506333019872
aF0.9590843356535721
aF0.13216799614411229
aF0.51334103398508224
aF0.054627121168319435
aF0.13621797733700267
aF0.098264084909586269
aF0.077543827594942633
aF0.1094852790361045
aF0.089056023750197458
aF0.97932506086107907
aa(lp378
F0.10849447849149488
aF0.41214526748840963
aF0.200992846387758
aF0.12354919937576531
aF0.77938667022779862
aF0.06247957584389352
aF0.10383718471012601
aF0.70777286959995311
aF0.93619667167453235
aF0.11311396939684114
aF0.51542249791930073
aF0.05040582951850732
aF0.10930283272400457
aF0.058494115208750128
aF0.082463113394379853
aF0.1094852790361045
aF0.10557191761118169
aF0.97932506086107907
aa(lp379
F0.14186029498714361
aF0.40271019772595618
aF0.30771090104728971
aF0.19502128950506742
aF0.73019758045166072
aF0.06247957584389352
aF0.10477407450788218
aF0.69382746002726725
aF0.95220891330338875
aF0.13101388143617038
aF0.51300128625053931
aF0.072454561109781879
aF0.15003985625791144
aF0.13752154797800006
aF0.10330914825079407
aF0.13881827185808135
aF0.10557191761118169
aF0.95971983121885307
aa(lp380
F0.15778463194785403
aF0.40932575455700509
aF0.32020840195226113
aF0.21221344570965203
aF0.73019758045166072
aF0.89521265691260909
aF0.12230096483700881
aF0.66036652199894863
aF0.97732082592403036
aF0.14639148454807582
aF0.53610323952919003
aF0.077195416213058088
aF0.17792065294277734
aF0.14890537474958468
aF0.10158112330408586
aF0.13881827185808135
aF0.10441979177143082
aF0.16116564442706593
aa(lp381
F0.14369486277232543
aF0.41157708624798039
aF0.30934073549869456
aF0.22194899856018294
aF0.76881930086852968
aF0.89521265691260909
aF0.1147554342865163
aF0.68755935266683743
aF0.96093659113294827
aF0.1200962419670822
aF0.53094508169856469
aF0.074825717573601763
aF0.15300364660660962
aF0.094531136150882086
aF0.10691536897179116
aF0.13893592455943207
aF0.12356713518771066
aF0.16116564442706593
aa(lp382
F0.14275938145341954
aF0.3939317009660071
aF0.29433870701809783
aF0.25198522525360367
aF0.75374211977896344
aF0.93268267825070372
aF0.12862760252657457
aF0.69050209518487893
aF0.95684993952741149
aF0.12212714852022839
aF0.51690677330722223
aF0.048276253843237527
aF0.12485830366016959
aF0.068817924343022766
aF0.088850594058333787
aF0.13893592455943207
aF0.12356713518771066
aF0.13215438026713044
aa(lp383
F0.13436979577045555
aF0.38481790206725752
aF0.2858678150213434
aF0.24146354696881125
aF0.75374211977896344
aF0.93268267825070372
aF0.12314972730531748
aF0.6930839662633258
aF0.96913335968485415
aF0.12025999551440235
aF0.5266606046664688
aF0.065411804709881352
aF0.11617390003794992
aF0.055790967201620918
aF0.078284814341184464
aF0.13317195595552137
aF0.091949288081150382
aF0.11565521604096184
aa(lp384
F0.13366067417993338
aF0.40554489720765641
aF0.17448619099676616
aF0.20446991579483226
aF0.77155256126505267
aF0.086189802873718691
aF0.12314197131886956
aF0.70092722261248464
aF0.96119094825240303
aF0.11865367871555253
aF0.5173799971555787
aF0.065411804709881352
aF0.12107620752252884
aF0.088933103990046933
aF0.072664411173427285
aF0.12128081800605195
aF0.091949288081150382
aF0.11820208655714214
aa(lp385
F0.1193763929944803
aF0.42361570765661666
aF0.21536396323549542
aF0.15774864325329122
aF0.78084644062619291
aF0.086189802873718691
aF0.12491856493651665
aF0.71808550812069416
aF0.94657131099597325
aF0.10909434696618021
aF0.51987136155528868
aF0.068756923694116567
aF0.12107620752252884
aF0.08963409018567696
aF0.11128068325537066
aF0.10601661625506703
aF0.073580797981555937
aF0.98619876503103221
aa(lp386
F0.11326244938532748
aF0.40999124171586221
aF0.3381311344469683
aF0.15774864325329122
aF0.76539416998005305
aF0.10805601746976468
aF0.10718656395783274
aF0.6972177653060383
aF0.98492645330133233
aF0.10567791397519354
aF0.51987136155528868
aF0.079563122865420527
aF0.10079610172773504
aF0.087565306600185036
aF0.081391251885133298
aF0.12100427786988166
aF0.1031136496705171
aF0.98619876503103221
aa(lp387
F0.14021933161279651
aF0.38791329880238029
aF0.32351768154011401
aF0.26013362556500108
aF0.75706006454307384
aF0.9131486858670671
aF0.11807804103157488
aF0.66779261969440928
aF0.99393566367650854
aF0.12361556490710442
aF0.53519632848255616
aF0.082785311827118083
aF0.14006726116325527
aF0.0919705952870956
aF0.081298386988432808
aF0.12276900915286459
aF0.1031136496705171
aF0.15029102269281516
aa(lp388
F0.15144442796103025
aF0.41399006760423257
aF0.30226096816861792
aF0.25211442147600738
aF0.75706006454307384
aF0.9131486858670671
aF0.14118598877084415
aF0.70063300878220702
aF0.96774910687745841
aF0.1405682433774465
aF0.57881995494466842
aF0.083011715226927421
aF0.15853536961943437
aF0.098901107955907591
aF0.086287002578269573
aF0.12276900915286459
aF0.084675380086201874
aF0.15029102269281516
aa(lp389
F0.13551369550161665
aF0.4795935863334666
aF0.22535429202613316
aF0.25211442147600738
aF0.82642570921975167
aF0.92120281303166385
aF0.124309028125895
aF0.7604246315888108
aF0.93176564664841888
aF0.13132186154431325
aF0.61389722141819181
aF0.025452147271170476
aF0.13826248017670964
aF0.10798714021020295
aF0.053025833473110726
aF0.10346705889615498
aF0.051189631328286279
aF0.077072513350762178
aaa(lp390
(lp391
F0.11256719154483402
aF0.41846924343864328
aF0.27326022324940058
aF0.21362436716890881
aF0.76363197908611369
aF0.81817263781462479
aF0.080522649162537208
aF0.70460716320950889
aF0.96854721518304387
aF0.092310707195893474
aF0.51484712727261484
aF0.060214978977217962
aF0.11244898107299886
aF0.077986366923237391
aF0.092801807531474406
aF0.13257887284539169
aF0.11279914446028569
aF0.1123838799887379
aa(lp392
F0.12811462260603165
aF0.41193484967062521
aF0.27144350922254246
aF0.21362436716890881
aF0.76163775767805086
aF0.9168719715172603
aF0.095334572110122529
aF0.70569847905987171
aF0.95912158124300706
aF0.13098348581773123
aF0.52857612628438733
aF0.054692374800255371
aF0.14610049543804018
aF0.064826002739224578
aF0.067764408435039239
aF0.10216685064436107
aF0.10886242392409268
aF0.12336342357354398
aa(lp393
F0.13512805613646389
aF0.39713976086784564
aF0.2892908272587566
aF0.22490883053540292
aF0.72753986764875234
aF0.88960538693670466
aF0.10907127901548919
aF0.69665955553892012
aF0.9606055193277161
aF0.12648623674233278
aF0.52760760240551507
aF0.056164380512413965
aF0.14804911107572719
aF0.071715429046383061
aF0.076649570135706627
aF0.12913728336298547
aF0.12465569572027188
aF0.23944374343224012
aa(lp394
F0.14339674549101644
aF0.39411409813890053
aF0.30717371580596853
aF0.22490883053540292
aF0.72753986764875234
aF0.88960538693670466
aF0.1178378581493717
aF0.6864973162610587
aF0.96688062115256845
aF0.12074309548105912
aF0.51026559637819024
aF0.077849498960144786
aF0.1536359734264523
aF0.10542435392320718
aF0.082332023348936564
aF0.1468030340468644
aF0.12465569572027188
aF0.23944374343224012
aa(lp395
F0.13913536059827539
aF0.41280596229569749
aF0.31328789976529337
aF0.17096643319229574
aF0.74659835635824012
aF0.94046670522192344
aF0.12517198062104806
aF0.71683914291957684
aF0.99120632595029912
aF0.12074309548105912
aF0.5166939411259428
aF0.079824468713576402
aF0.15577427631078264
aF0.090842399184950851
aF0.08217886158660416
aF0.1468030340468644
aF0.1337900180221698
aF0.12212644270300047
aa(lp396
F0.096574912278017039
aF0.41063415104780754
aF0.31358960559641019
aF0.17096643319229574
aF0.76119081147914469
aF0.91034829410355311
aF0.048704843069547421
aF0.70720530236851198
aF0.96932186009581056
aF0.083186054475066148
aF0.51542249791930073
aF0.068756923694116567
aF0.11571370169231454
aF0.080297146938502706
aF0.09117338740317335
aF0.10997340310333231
aF0.1337900180221698
aF0.18216836682469412
aa(lp397
F0.14210078036638626
aF0.41310918993432616
aF0.28446772933051484
aF0.20682247071400903
aF0.76119081147914469
aF0.82365876330585253
aF0.11025133877554177
aF0.70244007023995936
aF0.93917323061849778
aF0.14567905647036106
aF0.53025095182708171
aF0.058066022355249304
aF0.1525370594715787
aF0.082002690671705181
aF0.097127469983086523
aF0.13249757049244915
aF0.11410938729650984
aF0.18216836682469412
aa(lp398
F0.14695468641986736
aF0.41275164011326015
aF0.27361581439396931
aF0.1143029172040383
aF0.76527109382061531
aF0.82365876330585253
aF0.14707976198780698
aF0.70238011170433901
aF0.95734446488778879
aF0.14710788326442858
aF0.51542249791930073
aF0.058066022355249304
aF0.15754556280060822
aF0.078246117280154556
aF0.06829087756440072
aF0.13249757049244915
aF0.11410938729650984
aF0.15809145148831769
aa(lp399
F0.098936287265457112
aF0.40023758043092494
aF0.29352502523137303
aF0.1143029172040383
aF0.77811083361359679
aF0.95821365531824376
aF0.071737530548008688
aF0.7089893789405024
aF0.9818578467814767
aF0.10943064692873776
aF0.50462088814193962
aF0.063043643406241606
aF0.11740185782846507
aF0.057079786378476542
aF0.063970248499813503
aF0.10263957509222366
aF0.09268375753862225
aF0.13141519334900381
aa(lp400
F0
aF0.39915728172066145
aF0.29908325842217598
aF0.16473354361896134
aF0.83151792757688148
aF1
aF0.00066011727008707943
aF0.73773997902907595
aF0.99515605793628192
aF0
aF0.51542249791930073
aF0.068756923694116567
aF0
aF0.0099182359280314391
aF0.063970248499813503
aF0
aF0
aF0.059855070868747695
aaa(lp401
(lp402
F0.11244613868033285
aF0.46611612014726306
aF0.21724331149616777
aF0.11295364604423223
aF0.78529462634316038
aF0.57752771347797882
aF0.1149253971999491
aF0.72846974536532783
aF0.94253205887843228
aF0.12295953860984628
aF0.52097636500223998
aF0.060096681474738137
aF0.11166982917971419
aF0.11815782959765399
aF0.075316873894233111
aF0.1174078354200884
aF0.20591164164568293
aF0.17858094267858307
aa(lp403
F0.11792337032893976
aF0.41455576673213684
aF0.39719450083327629
aF0.11295364604423223
aF0.7523554189704168
aF0.93055522156982851
aF0.10543222810043273
aF0.72226712402022042
aF0.97114650273126812
aF0.11623248623066861
aF0.52019676442699669
aF0.060697740619806553
aF0.12608148231780525
aF0.091170885832166149
aF0.071970558285944411
aF0.10463115080450419
aF0.11189731760515943
aF0.96540774258208817
aa(lp404
F0.1446841950989092
aF0.39932128195636957
aF0.41794588606821442
aF0.21360739269739498
aF0.72887917521353174
aF0.048263930874808403
aF0.086361792424288902
aF0.64418192773062011
aF0.96830078669308473
aF0.11482491145017394
aF0.52317252548683302
aF0.066648695377290262
aF0.16064174596649416
aF0.12245612834188581
aF0.08833721603183213
aF0.16569085263083203
aF0.14041886740869369
aF0.99175433527084778
aa(lp405
F0.1487225532301405
aF0.40608389354845892
aF0.17297646697842281
aF0.21360739269739498
aF0.72887917521353174
aF0.048263930874808403
aF0.10237656071194687
aF0.67683763642751493
aF0.71343452455951195
aF0.14155831763673926
aF0.52715617740942056
aF0.070418874735762069
aF0.130590003499619
aF0.097026524567350697
aF0.10383975727404629
aF0.16569085263083203
aF0.14041886740869369
aF0.99175433527084778
aa(lp406
F0.13306443812757174
aF0.39745509969529008
aF0.19043193589538521
aF0.1863446339367574
aF0.76159670359718534
aF0.1059165067382779
aF0.14248314528924866
aF0.70667715777996221
aF0.9782345890856784
aF0.13228584702515006
aF0.51403914495957892
aF0.083446637848969329
aF0.12247652274802809
aF0.058821062023637974
aF0.087083985502281372
aF0.11984039090334545
aF0.092645921103859136
aF0.86081957758785643
aa(lp407
F0.14110637603814838
aF0.40625160868879323
aF0.30559619226559354
aF0.1863446339367574
aF0.76159670359718534
aF0.91832413634253551
aF0.14757225025605031
aF0.71263062569183633
aF0.95620290790913276
aF0.13983028950312731
aF0.52296473127572707
aF0.074274375610122151
aF0.12223398787421816
aF0.093615399960533877
aF0.085897251481236808
aF0.11984039090334545
aF0.079252386075789216
aF0.17721944455083008
aa(lp408
F0.14406979067660428
aF0.4378909785749282
aF0.29192751027511255
aF0.23117774832895205
aF0.76348999872835654
aF0.91832413634253551
aF0.096668867672010966
aF0.71377207371949525
aF0.9484787899055821
aF0.13464142472507551
aF0.53506382219946069
aF0.04711676821212446
aF0.1380394582956945
aF0.10476421381421484
aF0.086518072566278123
aF0.21631440860960283
aF0.15611567577691263
aF0.17721944455083008
aa(lp409
F0.11733674698787724
aF0.43934754916693797
aF0.28636102149175346
aF0.17240277121549513
aF0.77965094508917232
aF0.95552077480416464
aF0.076831603327493669
aF0.71587456242743663
aF0.96672425955702102
aF0.099029713382075293
aF0.51542249791930073
aF0.0684969130425645
aF0.12358602628048587
aF0.10238400267651723
aF0.065376669345298011
aF0.21631440860960283
aF0.15611567577691263
aF0.13430783906006599
aa(lp410
F0.1142987259376311
aF0.44437360436981643
aF0.072010083850006096
aF0.17240277121549513
aF0.77965094508917232
aF0.030545126315469795
aF0.073951269838887695
aF0.73716341137461139
aF0.96373349356271554
aF0.11519520205114693
aF0.53118268650843747
aF0.068626918368340534
aF0.13426073475280789
aF0.073759624401094667
aF0.064233761165371592
aF0.10254323101634036
aF0.09223327607248534
aF0.96983402594603541
aa(lp411
F0.14413223779875511
aF0.43318191616776769
aF0.17305763595492613
aF0.18724456639509129
aF0.81482089508450073
aF0.030545126315469795
aF0.14630746647166193
aF0.73224739608853762
aF0.2572332531384891
aF0.15233660042848329
aF0.52243885695225878
aF0.070474568943281982
aF0.15226110118021646
aF0.062660782122518244
aF0.17188522015276458
aF0.097523063617338535
aF0.079392531608301481
aF0.96983402594603541
aa(lp412
F0.16306551191412683
aF0.38435973935768841
aF0.65754015437094782
aF0.34045540641493954
aF0.81482089508450073
aF0.062733845219755446
aF0.19576017845043436
aF0.71500468059257549
aF0.98302428217181825
aF0.15845127632137085
aF0.49470877657384282
aF0.096670477182659822
aF0.14922201472381225
aF0.017410129234905831
aF0.78137106944924917
aF0.097523063617338535
aF0.022820790952484345
aF0.95730483954768042
aaa(lp413
(lp414
F0.12103748547199666
aF0.43097622529519669
aF0.25009505480146593
aF0.15193883431335514
aF0.74618112366418232
aF0.63881446915983942
aF0.094768491275936867
aF0.72375101790051088
aF0.95552892304062542
aF0.12777244205096988
aF0.55057891713942919
aF0.062865936284039178
aF0.1222821262283659
aF0.089475456760970504
aF0.068160760964778758
aF0.12493972463733144
aF0.21522751744071175
aF0.18261472779798754
aa(lp415
F0.13082987422382064
aF0.41794498748843684
aF0.28253862812851771
aF0.15193883431335514
aF0.75137638550431951
aF0.92862759164820996
aF0.11491651705046102
aF0.70122245078806245
aF0.96676651587998008
aF0.11514274997408401
aF0.51542249791930073
aF0.062865936284039178
aF0.13836125430134363
aF0.094275294302416629
aF0.067979059189371388
aF0.13333508731941465
aF0.1286550927548499
aF0.11189736805933738
aa(lp416
F0.13523813550347979
aF0.42413908583645621
aF0.29983211052700764
aF0.14080806646760111
aF0.7670630106846259
aF0.088740521707759701
aF0.11637866406800956
aF0.69048933100811138
aF0.96579518965047362
aF0.12899874640050085
aF0.51909449721230316
aF0.064262188900887501
aF0.13698245891037422
aF0.10345614574262794
aF0.085549122593753885
aF0.13333508731941465
aF0.1286550927548499
aF0.91163718270372573
aa(lp417
F0.12500481583825773
aF0.41292735805668657
aF0.19142862237661135
aF0.14080806646760111
aF0.75232733172198318
aF0.088740521707759701
aF0.091917475335674514
aF0.68451690366486972
aF0.70696857303507343
aF0.12899874640050085
aF0.51909449721230316
aF0.059660923998158574
aF0.13351584681413339
aF0.11611128228835513
aF0.10565283385125687
aF0.11726648008378743
aF0.1051374054771341
aF0.93095844073872258
aa(lp418
F0.13261086546780188
aF0.40762450347691814
aF0.19521850429419624
aF0.23270064105728699
aF0.75232733172198318
aF0.12748869690928977
aF0.099529977538549863
aF0.68884342088259654
aF0.96674725618437063
aF0.11570339865313563
aF0.50760256307278373
aF0.082527252381834337
aF0.15854753007846381
aF0.099246313183757803
aF0.082970933431686905
aF0.11726648008378743
aF0.1051374054771341
aF0.93095844073872258
aa(lp419
F0.148958999588232
aF0.39721798175704093
aF0.32025397946666645
aF0.23270064105728699
aF0.75621381984724712
aF0.91976732905451963
aF0.12849086160180789
aF0.70285576259851212
aF0.99999999999999989
aF0.12465327386804127
aF0.53552632408080658
aF0.083942295429536712
aF0.16027363637244046
aF0.079399146312127161
aF0.087972257665830458
aF0.12364402186424223
aF0.075591182774342056
aF0.13498822590137993
aa(lp420
F0.13527107442224617
aF0.39652346480153294
aF0.2673211645658769
aF0.1137377991527402
aF0.75621381984724712
aF0.64245732355105334
aF0.11348994707653154
aF0.70367642171815359
aF0.97557342262401991
aF0.12465327386804127
aF0.51542249791930073
aF0.070872298358020613
aF0.15607089258988918
aF0.081682401277263408
aF0.087512879415474559
aF0.12908837955220234
aF0.098586204159435309
aF0.15510462341615411
aa(lp421
F0.1301907005964556
aF0.41658187934068042
aF0.24670114341691132
aF0.1137377991527402
aF0.76348824412952754
aF0.64245732355105334
aF0.11178651582761323
aF0.71779184282662567
aF0.97396993540322985
aF0.13897427051086275
aF0.51550902674091714
aF0.060553939773933654
aF0.14559913334292676
aF0.092417452587576068
aF0.071499311466195967
aF0.12908837955220234
aF0.098586204159435309
aF0.15510462341615411
aa(lp422
F0.15601415660412199
aF0.40498858813249233
aF0.28063713037685734
aF0.2896894543548395
aF0.81093473508639558
aF0.948175769124743
aF0.17677476585617524
aF0.71742731592506415
aF0.97437179448380795
aF0.15383436938654438
aF0.49237611852278962
aF0.058034952690229361
aF0.14642079138638844
aF0.04015436460145641
aF0.074008999121656788
aF0.10834028886208441
aF0.056877957464520984
aF0.10665852253020655
aa(lp423
F0.13390492364929654
aF0.39878719667619356
aF0.28793910317396099
aF0.20759604972847201
aF0.7376711983122326
aF0.065686549404917582
aF0.081166646316214452
aF0.70765287331144466
aF0.97440045229616845
aF0.14173185167593061
aF0.48675356790430369
aF0.061322825871343592
aF0.13144907961065572
aF0.046440907590842267
aF0.088877321562153416
aF0.16805266485004866
aF0.17903304887326654
aF0.90452750189373465
aa(lp424
F0.11952217371931695
aF0.41068644467423343
aF0.31011272379945537
aF0.20759604972847201
aF0.7376711983122326
aF0.065686549404917582
aF0.06917407690740246
aF0.67555573891491338
aF0.98961411238234365
aF0.11612380308765378
aF0.53056996439813531
aF0.06841924537177406
aF0.11228995126961533
aF0.098016007514315218
aF0.093149778957662133
aF0.16805266485004866
aF0.17903304887326654
aF0.90452750189373465
aa(lp425
F0.12818860791577541
aF0.39762760840600475
aF0.33222906193740054
aF0.21752332120061163
aF0.7751413782892691
aF0.97127209591201979
aF0.12560663526114868
aF0.70408410520157394
aF0.9868218677095596
aF0.1244671419737816
aF0.5275699524485733
aF0.077523643237445414
aF0.12440912187056261
aF0.044693901071109723
aF0.098941193670879501
aF0.11910576796992126
aF0.075537670658851683
aF0.12766059763364035
aa(lp426
F0.14178020189536947
aF0.41028490916290217
aF0.30252245434423436
aF0.21752332120061163
aF0.76369596657803562
aF0.90914260256687607
aF0.14574467358248844
aF0.714983279310338
aF0.96813988831097431
aF0.1244671419737816
aF0.52355929628124886
aF0.054875670477826433
aF0.12725439538795388
aF0.077894170628699078
aF0.096732152311863079
aF0.13056823437265483
aF0.073722588709038792
aF0.13932442974950909
aa(lp427
F0.15005730906672238
aF0.41192670110662072
aF0.27271295065840456
aF0.27599488826944873
aF0.76074466923024442
aF0.90914260256687607
aF0.14809159718405068
aF0.7245514190587804
aF0.95188312690037069
aF0.12520322965994496
aF0.52614910391565173
aF0.047632918502472435
aF0.13410459324347951
aF0.093471263949089597
aF0.074254992075920567
aF0.13056823437265483
aF0.073722588709038792
aF0.13932442974950909
aa(lp428
F0.1433668802339611
aF0.32268408339918553
aF0.28398024187854448
aF0.27599488826944873
aF0.76074466923024442
aF0.91537766117415653
aF0.13319526431023349
aF0.66648830737195131
aF0.93972599643172106
aF0.12998272645598924
aF0.45567283293219668
aF0.047972298162117677
aF0.14172612079718691
aF0.018601047884701235
aF0.096344941269854323
aF0.10824727023308209
aF0.036168650735955182
aF0.13853282937158048
aaa.