(lp1
(lp2
(lp3
I0
aF-0
aF0
aa(lp4
I33
aF-223.28789387769822
aF99.81435467788188
aa(lp5
I60
aF-302.99766672022241
aF135.86658294195033
aa(lp6
I82
aF-399.5548928250459
aF175.70846615296298
aa(lp7
I117
aF-521.5635366293634
aF229.73422874321503
aa(lp8
I141
aF-639.19292845668861
aF281.01257644415733
aa(lp9
I166
aF-684.54655511114117
aF301.22596191533665
aa(lp10
I188
aF-761.24787971255705
aF336.12533283034088
aa(lp11
I226
aF-985.25570605214864
aF435.71670328909272
aa(lp12
I247
aF-1054.1422058349897
aF464.9351850070309
aa(lp13
I276
aF-1174.3075486768739
aF517.90099599213977
aa(lp14
I319
aF-1417.5537113682626
aF624.04710947687158
aa(lp15
I339
aF-1429.2864263132858
aF631.07509247780081
aa(lp16
I369
aF-1546.1207677428627
aF682.38677373538405
aa(lp17
I401
aF-1658.2648428709915
aF731.05513643191921
aa(lp18
I443
aF-1799.8707733047288
aF791.90357685076765
aa(lp19
I468
aF-1908.7798017909265
aF840.96154308242012
aa(lp20
I510
aF-2045.0034757118576
aF901.9654845273534
aa(lp21
I552
aF-2267.2405615779903
aF1000.828499231089
aa(lp22
I588
aF-2429.6116786460534
aF1069.5090658284055
aa(lp23
I624
aF-2610.0022364310253
aF1150.259261686778
aa(lp24
I662
aF-2772.266866800207
aF1220.5331929409811
aa(lp25
I711
aF-3029.3801160710991
aF1335.891925789894
aa(lp26
I750
aF-3147.1753950877587
aF1385.7119493406112
aa(lp27
I789
aF-3381.7502279862993
aF1493.292249293354
aa(lp28
I820
aF-3572.8444188468875
aF1573.7511263616589
aa(lp29
I844
aF-3592.5744947009457
aF1585.4262647251844
aa(lp30
I893
aF-3833.9125064854984
aF1689.5769204475675
aa(lp31
I932
aF-3969.6055039654166
aF1749.7536796290724
aa(lp32
I960
aF-3990.3642777987084
aF1758.2289298486985
aa(lp33
I984
aF-4184.508528272544
aF1844.9500758532222
aa(lp34
I1025
aF-4374.0645860276745
aF1928.6237677077324
aa(lp35
I1062
aF-4548.5086982703579
aF2005.580792089514
aa(lp36
I1099
aF-4765.4852714167837
aF2100.4194892789528
aa(lp37
I1124
aF-4811.1160302239932
aF2119.9231741493745
aa(lp38
I1158
aF-4915.6220312793839
aF2168.5143488375461
aa(lp39
I1202
aF-5154.7686764934851
aF2270.4790376833712
aa(lp40
I1244
aF-5317.6138848402115
aF2343.4178708315508
aa(lp41
I1264
aF-5349.1073168804996
aF2355.6310826117447
aa(lp42
I1298
aF-5546.7205618067246
aF2443.9715950427985
aa(lp43
I1341
aF-5796.3629529729433
aF2556.1018895975631
aa(lp44
I1361
aF-5876.3091481516549
aF2590.4909434073343
aa(lp45
I1399
aF-6011.5328271040498
aF2649.87880534433
aa(lp46
I1430
aF-6119.1547134432658
aF2698.8852560693713
aa(lp47
I1450
aF-6167.5296730878072
aF2719.592685374635
aa(lp48
I1497
aF-6430.2797604106754
aF2835.4240784995209
aa(lp49
I1547
aF-6624.728092340808
aF2918.9560974001997
aa(lp50
I1593
aF-6802.9591977095088
aF2999.346923528874
aa(lp51
I1624
aF-6946.8015975649596
aF3061.153550744139
aa(lp52
I1667
aF-7203.5502140329854
aF3175.7774250521084
aa(lp53
I1696
aF-7325.2141173662876
aF3228.6687806117225
aa(lp54
I1722
aF-7421.5411491275772
aF3270.7106690826326
aa(lp55
I1749
aF-7597.0367705553963
aF3348.5262076272716
aa(lp56
I1789
aF-7724.8553825327226
aF3404.4779263762784
aa(lp57
I1827
aF-7967.6860352576405
aF3513.4598292563078
aa(lp58
I1862
aF-8082.8239178365729
aF3563.923170576717
aa(lp59
I1895
aF-8214.4257618000338
aF3620.3029341154815
aa(lp60
I1928
aF-8335.4890673304726
aF3673.8960994893969
aa(lp61
I1961
aF-8450.8044703793094
aF3722.6182684101464
aa(lp62
I1995
aF-8551.9331834020977
aF3770.3517969118698
aa(lp63
I2016
aF-8692.1495240760014
aF3830.6579015140574
aa(lp64
I2061
aF-8961.0227916021395
aF3951.0643751013113
aa(lp65
I2110
aF-9151.0706898679891
aF4032.8402999515497
aa(lp66
I2142
aF-9289.5169430327296
aF4095.5711947693235
aa(lp67
I2182
aF-9407.5391778798894
aF4145.363669935331
aa(lp68
I2202
aF-9456.0595050753345
aF4166.5935447917263
aa(lp69
I2245
aF-9739.8443171711278
aF4293.0649662490923
aa(lp70
I2276
aF-9870.0853899034555
aF4350.3157807029665
aa(lp71
I2307
aF-9996.2633823652686
aF4405.2938363770772
aa(lp72
I2331
aF-10116.217804117607
aF4457.8751489808137
aa(lp73
I2373
aF-10275.435051663808
aF4528.4458578979311
aa(lp74
I2407
aF-10428.403413339516
aF4595.9106057893823
aa(lp75
I2434
aF-10533.111680124393
aF4643.3297467377697
aa(lp76
I2472
aF-10700.075828009582
aF4716.5677750102159
aa(lp77
I2517
aF-10874.953482898534
aF4795.609796126766
aa(lp78
I2567
aF-11143.904810534545
aF4910.0384639359481
aa(lp79
I2594
aF-11265.760058157877
aF4964.1941588669233
aa(lp80
I2625
aF-11370.890316407738
aF5012.8565686888587
aa(lp81
I2661
aF-11485.891689557398
aF5063.221274839264
aa(lp82
I2695
aF-11641.778260382336
aF5132.3028926774723
aa(lp83
I2724
aF-11845.341802977342
aF5220.5261220215889
aa(lp84
I2763
aF-11998.475238960924
aF5289.2815841034781
aa(lp85
I2797
aF-12127.547141072004
aF5345.508788674123
aa(lp86
I2839
aF-12328.675364123035
aF5433.4321571955243
aa(lp87
I2865
aF-12419.818806893943
aF5472.0549571421752
aa(lp88
I2891
aF-12500.428439656673
aF5509.2326557311526
aa(lp89
I2912
aF-12522.693595160565
aF5520.1217516719271
aa(lp90
I2942
aF-12662.359668208694
aF5582.2116048271237
aa(lp91
I2963
aF-12804.137335593541
aF5644.4264349624136
aa(lp92
I2986
aF-12946.048901965285
aF5706.156846685134
aa(lp93
I3008
aF-13089.538349078915
aF5768.0727632961907
aa(lp94
I3031
aF-13172.461253367621
aF5806.673122831141
aa(lp95
I3075
aF-13394.233400917286
aF5902.1938786364171
aa(lp96
I3096
aF-13473.095278392817
aF5940.1481594563984
aa(lp97
I3138
aF-13714.019681779806
aF6044.110717738813
aa(lp98
I3184
aF-13984.693300016963
aF6163.3524814504162
aa(lp99
I3215
aF-14137.775750547375
aF6233.4777025928597
aa(lp100
I3260
aF-14371.321868979509
aF6334.9310714384646
aa(lp101
I3304
aF-14561.878806114923
aF6418.4205928261526
aa(lp102
I3347
aF-14779.55361498964
aF6515.1680859250264
aa(lp103
I3372
aF-14968.05852866428
aF6597.2229463910135
aa(lp104
I3410
aF-15124.620867707985
aF6667.3425636076045
aa(lp105
I3455
aF-15448.500279403435
aF6809.0801396912993
aa(lp106
I3486
aF-15566.426770285576
aF6860.3127087066123
aa(lp107
I3506
aF-15706.882072381062
aF6923.5305384342009
aa(lp108
I3530
aF-15861.675162455918
aF6992.5119305695798
aa(lp109
I3562
aF-15992.020017037734
aF7048.8162057397431
aa(lp110
I3590
aF-16095.59160125223
aF7093.3942711307427
aa(lp111
I3637
aF-16267.347625304988
aF7171.796944255806
aa(lp112
I3686
aF-16429.251287659594
aF7240.6205230527448
aa(lp113
I3722
aF-16623.574994564515
aF7328.9778074117621
aa(lp114
I3749
aF-16723.450400814247
aF7370.6514480266924
aa(lp115
I3775
aF-16855.978877262853
aF7428.144871064058
aa(lp116
I3803
aF-17041.722112179563
aF7512.400069542834
aa(lp117
I3825
aF-17098.820024658169
aF7536.3134567280395
aa(lp118
I3861
aF-17163.1033515544
aF7564.5594297359276
aa(lp119
I3889
aF-17268.673999826802
aF7612.839092977476
aa(lp120
I3928
aF-17459.984679015051
aF7695.0980975052207
aa(lp121
I3959
aF-17597.561377229977
aF7757.1713291091037
aa(lp122
I4009
aF-17871.768475210774
aF7877.6895792630858
aa(lp123
I4034
aF-17982.197195694614
aF7924.9426142449438
aa(lp124
I4075
aF-18220.264645240881
aF8031.5116643372157
aa(lp125
I4124
aF-18399.966377752393
aF8110.2628118153543
aa(lp126
I4155
aF-18653.31091821723
aF8221.1544403952394
aa(lp127
I4191
aF-18814.814472321414
aF8295.2249591716027
aa(lp128
I4234
aF-18976.956942097182
aF8363.2316414980414
aa(lp129
I4277
aF-19147.914812762891
aF8439.2474319108842
aa(lp130
I4312
aF-19349.493263066419
aF8529.0767597762642
aa(lp131
I4341
aF-19500.690755843814
aF8595.015816045614
aa(lp132
I4373
aF-19730.747820844947
aF8695.8651057609095
aaa(lp133
(lp134
I0
aF0
aF0
aa(lp135
I36
aF265.95053793223593
aF-103.98448473987982
aa(lp136
I76
aF450.50937678140082
aF-176.59973231566403
aa(lp137
I123
aF627.86618104364652
aF-245.95458200504544
aa(lp138
I145
aF714.70227022561835
aF-281.06155332955092
aa(lp139
I194
aF963.50464272683018
aF-379.53299050699178
aa(lp140
I225
aF1131.2519990830513
aF-444.68384730336231
aa(lp141
I271
aF1374.5535719062225
aF-540.08125194072841
aa(lp142
I306
aF1600.5177940573333
aF-628.36751900481238
aa(lp143
I330
aF1659.3079177365421
aF-653.56924047554344
aa(lp144
I379
aF1799.3144568148541
aF-706.60878510784164
aa(lp145
I411
aF1929.7219497133899
aF-756.02325974435803
aa(lp146
I453
aF2127.392079454442
aF-833.59062250704494
aa(lp147
I482
aF2235.0235810791282
aF-878.34843709892345
aa(lp148
I505
aF2394.071386731061
aF-940.055424006051
aa(lp149
I529
aF2480.9676989872828
aF-973.17167944615107
aa(lp150
I577
aF2616.841354483759
aF-1028.0669206620028
aa(lp151
I625
aF2783.2637543565666
aF-1091.6683690119166
aa(lp152
I646
aF2885.4162016285818
aF-1135.4165999952625
aa(lp153
I687
aF3007.2921732771015
aF-1180.1326296987766
aa(lp154
I730
aF3188.6806218271436
aF-1251.4303544640238
aa(lp155
I775
aF3396.4576607674858
aF-1333.5931407539713
aa(lp156
I798
aF3482.1440857288767
aF-1366.0751121571666
aa(lp157
I839
aF3670.7327175143519
aF-1439.9604358430956
aa(lp158
I875
aF3790.7969652965207
aF-1489.1979485646907
aa(lp159
I903
aF3916.8037600990283
aF-1538.1372560030798
aa(lp160
I937
aF4093.6165062632499
aF-1608.1143718321705
aa(lp161
I985
aF4352.041863309054
aF-1708.5148499639949
aa(lp162
I1027
aF4542.8346048613248
aF-1782.1061610640893
aa(lp163
I1073
aF4795.2117691831045
aF-1883.7680933914157
aa(lp164
I1113
aF4934.9259365694707
aF-1937.8477248833028
aa(lp165
I1138
aF5071.644844369237
aF-1989.5831728179496
aa(lp166
I1187
aF5338.9161342819998
aF-2096.2614887765612
aa(lp167
I1213
aF5515.3688958745633
aF-2165.4840610349715
aa(lp168
I1252
aF5690.4659782387171
aF-2231.9195912692703
aa(lp169
I1272
aF5827.6390395935114
aF-2285.8115940712505
aa(lp170
I1296
aF5899.4479518610342
aF-2313.5905287916457
aa(lp171
I1322
aF5933.5493580114289
aF-2330.9534575382886
aa(lp172
I1372
aF6203.2185432126707
aF-2437.1193000177409
aa(lp173
I1397
aF6282.1295052564265
aF-2467.5119409648842
aa(lp174
I1436
aF6438.2469184516449
aF-2529.1866681726415
aa(lp175
I1461
aF6604.3197617738233
aF-2595.9744562681099
aa(lp176
I1498
aF6841.1544371161772
aF-2685.9684126706038
aa(lp177
I1543
aF7020.5495209044793
aF-2757.5999413421414
aa(lp178
I1586
aF7219.0077198401787
aF-2835.6116093078481
aa(lp179
I1623
aF7279.1259539670218
aF-2859.8346736499298
aa(lp180
I1643
aF7456.4967592077201
aF-2927.3069236184451
aa(lp181
I1665
aF7623.6775134508225
aF-2991.2180957228052
aa(lp182
I1707
aF7864.3405176881497
aF-3086.2000997396053
aa(lp183
I1752
aF8044.2837460622895
aF-3156.4674333074995
aa(lp184
I1782
aF8137.6706032286738
aF-3194.4593572861268
aa(lp185
I1813
aF8302.8180345712663
aF-3259.3348802251517
aa(lp186
I1838
aF8429.595282604716
aF-3310.1736666292477
aa(lp187
I1888
aF8700.3432909780186
aF-3414.8941713080362
aa(lp188
I1928
aF8808.5925838815838
aF-3458.2777369758719
aa(lp189
I1950
aF8878.5620503778337
aF-3485.6875135167443
aa(lp190
I2000
aF9094.1102220215234
aF-3570.5507701867605
aa(lp191
I2033
aF9200.1446661856735
aF-3612.1932827794849
aa(lp192
I2062
aF9344.5586046834924
aF-3668.0255464085726
aa(lp193
I2105
aF9557.1299448966274
aF-3751.1438901099305
aa(lp194
I2148
aF9681.416734378261
aF-3799.1289649432456
aa(lp195
I2180
aF9865.5717327334532
aF-3871.3748603436993
aa(lp196
I2209
aF9903.2806476509541
aF-3888.4803238088825
aa(lp197
I2235
aF9969.3346457087955
aF-3914.0568085061695
aa(lp198
I2261
aF10085.452050155307
aF-3959.1382999829952
aa(lp199
I2281
aF10133.975771344993
aF-3980.5984531055988
aa(lp200
I2301
aF10311.442177855295
aF-4047.4258212021364
aa(lp201
I2335
aF10461.514154931432
aF-4105.738009472554
aa(lp202
I2377
aF10682.069964468661
aF-4191.5208438515674
aa(lp203
I2427
aF10897.073612146383
aF-4279.0644138657954
aa(lp204
I2455
aF11012.359491607967
aF-4324.3667529419072
aa(lp205
I2486
aF11173.172449345951
aF-4387.1143333943992
aa(lp206
I2529
aF11410.078571351851
aF-4479.2372372429445
aa(lp207
I2576
aF11684.963143236726
aF-4586.7255964416463
aa(lp208
I2619
aF11931.538944355412
aF-4685.007282708827
aa(lp209
I2657
aF12112.65186607899
aF-4755.9439679004463
aa(lp210
I2706
aF12271.520360006389
aF-4817.5598763527796
aa(lp211
I2733
aF12393.94016340103
aF-4867.4057939543045
aa(lp212
I2756
aF12560.039669273317
aF-4931.8188720531152
aa(lp213
I2796
aF12723.359821880429
aF-4996.0376321598887
aa(lp214
I2840
aF12955.537180374182
aF-5086.7596753393109
aa(lp215
I2890
aF13209.364934128038
aF-5184.2112488753446
aa(lp216
I2938
aF13476.092585057735
aF-5290.2241989552558
aa(lp217
I2988
aF13688.208384752961
aF-5374.3388469872789
aa(lp218
I3022
aF13795.598077139262
aF-5416.3472071581818
aa(lp219
I3060
aF13896.950979441861
aF-5454.8241880343194
aa(lp220
I3099
aF14046.376106611417
aF-5515.5865345444236
aa(lp221
I3132
aF14130.89661050179
aF-5547.6402807688601
aa(lp222
I3172
aF14396.025491705996
aF-5650.8179865665807
aa(lp223
I3212
aF14590.397177077648
aF-5727.0714594527799
aa(lp224
I3246
aF14784.194386279491
aF-5801.8754185154594
aa(lp225
I3269
aF14954.553095318986
aF-5870.2202936365247
aa(lp226
I3316
aF15155.649622335603
aF-5949.1323675467775
aa(lp227
I3350
aF15342.265465711758
aF-6021.8887803970629
aa(lp228
I3373
aF15473.009679255154
aF-6074.6227940716635
aaa(lp229
(lp230
I0
aF0
aF0
aa(lp231
I34
aF141.49319604998232
aF65.182815481566166
aa(lp232
I78
aF266.01904435051443
aF121.88145126019948
aa(lp233
I110
aF374.94533909792244
aF174.44317483797565
aa(lp234
I150
aF576.86851018513971
aF268.38185788763394
aa(lp235
I186
aF836.45771852769531
aF390.28290387581825
aa(lp236
I235
aF1065.0031663483426
aF495.98313456279584
aa(lp237
I258
aF1147.9083455465466
aF535.98179270564276
aa(lp238
I294
aF1311.6486399184553
aF610.45821670733017
aa(lp239
I339
aF1492.3439041736256
aF695.95978801240688
aa(lp240
I370
aF1560.1501342830861
aF727.90129296429632
aa(lp241
I392
aF1594.3606857212426
aF744.50256265534358
aa(lp242
I429
aF1701.4343996442506
aF796.5996882790663
aa(lp243
I476
aF1890.8758627432192
aF884.35785988126509
aa(lp244
I510
aF2053.9743600149272
aF957.58779417383221
aa(lp245
I547
aF2297.3417452157723
aF1075.0674516985498
aa(lp246
I580
aF2476.4759102337412
aF1156.4824418049411
aa(lp247
I628
aF2713.6016343314527
aF1267.9655999524839
aa(lp248
I664
aF2786.7093021743049
aF1301.3216064581889
aa(lp249
I708
aF2983.6373137084338
aF1393.2056061828987
aa(lp250
I745
aF3171.0272640178669
aF1481.2466150549963
aa(lp251
I770
aF3160.2315130892976
aF1475.1538964062834
aa(lp252
I803
aF3367.3726984185091
aF1573.099227363967
aa(lp253
I824
aF3480.2869031015521
aF1626.4667890678634
aa(lp254
I859
aF3641.4637198192072
aF1700.3044598412753
aa(lp255
I900
aF3780.4276785119487
aF1765.1339462665487
aa(lp256
I925
aF3842.4150920683783
aF1793.8240087485055
aa(lp257
I950
aF3996.8400720614181
aF1868.0654807044334
aa(lp258
I985
aF4163.7195206725764
aF1944.6471700618104
aa(lp259
I1032
aF4316.6614975513103
aF2014.5957913572759
aa(lp260
I1063
aF4447.1889997843236
aF2075.6650122191249
aa(lp261
I1095
aF4601.7394438666852
aF2149.3075956639791
aa(lp262
I1118
aF4702.0036423223401
aF2197.1087056743418
aa(lp263
I1165
aF4915.5086255007946
aF2294.9184544161262
aa(lp264
I1187
aF5002.2732529355326
aF2337.6474709640052
aa(lp265
I1222
aF5185.9894465067109
aF2421.9306776582275
aa(lp266
I1250
aF5347.7577526348059
aF2496.6412983141727
aa(lp267
I1280
aF5475.3857918502354
aF2556.251094928261
aa(lp268
I1322
aF5702.0893159664947
aF2663.9808806217843
aa(lp269
I1372
aF5909.2871597956428
aF2758.2426083032374
aa(lp270
I1407
aF6118.5045140439106
aF2856.4526877732919
aa(lp271
I1435
aF6136.9924995315041
aF2866.4323445002187
aa(lp272
I1474
aF6339.3112369874871
aF2962.0141656585074
aa(lp273
I1496
aF6393.0245190782152
aF2985.1503330244573
aa(lp274
I1521
aF6609.3422630610248
aF3086.655311987493
aa(lp275
I1566
aF6884.836643128916
aF3214.1480808529045
aa(lp276
I1589
aF7037.461673275976
aF3286.2693695958451
aa(lp277
I1639
aF7174.578817735558
aF3352.3965458459115
aa(lp278
I1662
aF7291.9893426239751
aF3406.9461001693389
aa(lp279
I1686
aF7443.4056808368032
aF3476.4227082365719
aa(lp280
I1724
aF7644.9700466422191
aF3570.3438489779246
aa(lp281
I1745
aF7804.0511109849258
aF3644.6835194146215
aa(lp282
I1767
aF7937.5392751919435
aF3709.4275159583049
aa(lp283
I1814
aF8173.4890664838049
aF3818.6015062724086
aa(lp284
I1858
aF8310.0351105841073
aF3882.0727240596862
aa(lp285
I1889
aF8475.4545980948333
aF3960.2942852305414
aa(lp286
I1928
aF8699.404508424208
aF4063.2635002433258
aa(lp287
I1970
aF8872.9216986443844
aF4144.5924786855521
aa(lp288
I2014
aF9080.1208875103839
aF4240.5979179665292
aa(lp289
I2063
aF9329.7834251846052
aF4358.4326757680064
aa(lp290
I2110
aF9562.1904343938895
aF4466.4460149107254
aa(lp291
I2154
aF9720.0031102546436
aF4539.9410317150787
aa(lp292
I2190
aF9884.7197402841648
aF4617.1857676338386
aa(lp293
I2231
aF10040.156699970767
aF4687.6274121278057
aa(lp294
I2272
aF10264.642697668729
aF4794.6242124830842
aa(lp295
I2292
aF10309.717095667876
aF4814.551849667836
aa(lp296
I2313
aF10389.126497047222
aF4851.6860977110337
aa(lp297
I2363
aF10654.800672733563
aF4977.4928818799171
aa(lp298
I2407
aF10832.570693494956
aF5059.623421959308
aa(lp299
I2456
aF11072.801974039076
aF5172.2723072173685
aa(lp300
I2498
aF11249.797270373136
aF5255.9256034788832
aa(lp301
I2528
aF11458.183559868508
aF5350.2044426528473
aa(lp302
I2554
aF11521.762235539143
aF5380.550868513119
aa(lp303
I2603
aF11767.852902915269
aF5495.5676429033065
aa(lp304
I2630
aF11848.640718621169
aF5534.6239333293097
aa(lp305
I2671
aF12037.551460119894
aF5622.0671823174489
aa(lp306
I2696
aF12186.722624447477
aF5691.4015790517278
aa(lp307
I2735
aF12362.077328028608
aF5772.2042916761711
aa(lp308
I2761
aF12422.638942542868
aF5800.8135884863104
aa(lp309
I2810
aF12658.736843948507
aF5913.1367526502845
aa(lp310
I2844
aF12861.600674707381
aF6006.3534294028423
aa(lp311
I2888
aF13115.53142957521
aF6124.3225167190603
aa(lp312
I2924
aF13287.826838164796
aF6207.1759386630056
aa(lp313
I2969
aF13453.468829481191
aF6282.9626289705102
aa(lp314
I3002
aF13583.366299643592
aF6343.14389365018
aa(lp315
I3049
aF13736.625386880394
aF6419.0942447126108
aa(lp316
I3069
aF13803.065768110353
aF6447.5142117025453
aa(lp317
I3117
aF14000.975510235641
aF6539.1081313988698
aa(lp318
I3148
aF14222.067344925608
aF6642.5361128406958
aa(lp319
I3184
aF14436.15287870885
aF6744.3811186130706
aa(lp320
I3210
aF14552.980916594815
aF6797.4887686849115
aa(lp321
I3247
aF14685.735683748806
aF6859.7751035408264
aa(lp322
I3283
aF14847.083427476773
aF6932.6884240569198
aa(lp323
I3327
aF15136.824468995652
aF7072.4431440043318
aa(lp324
I3360
aF15340.030959949972
aF7165.7697805552725
aa(lp325
I3397
aF15406.437676974383
aF7196.071873897482
aa(lp326
I3427
aF15550.137312262334
aF7262.5142482872125
aa(lp327
I3475
aF15785.393252718462
aF7372.4803389120025
aa(lp328
I3524
aF16026.581159163085
aF7486.76344610875
aa(lp329
I3568
aF16249.259866383702
aF7588.8661421770748
aa(lp330
I3598
aF16325.053700525717
aF7625.7837634825391
aa(lp331
I3645
aF16498.180591545351
aF7706.2300923267594
aa(lp332
I3688
aF16708.416765211277
aF7804.342655995275
aa(lp333
I3716
aF16805.416713491151
aF7849.7062144797474
aa(lp334
I3737
aF16820.174755740882
aF7854.7153217304503
aa(lp335
I3780
aF17019.367763694394
aF7947.4356525622279
aa(lp336
I3817
aF17256.825073470805
aF8060.3183303942487
aa(lp337
I3840
aF17309.553985452207
aF8084.4442755026548
aa(lp338
I3887
aF17533.102986829181
aF8188.2213738367864
aaa(lp339
(lp340
I0
aF-0
aF0
aa(lp341
I33
aF-10.553928717824105
aF159.93068342321288
aa(lp342
I63
aF-22.263062571197416
aF345.34740572991473
aa(lp343
I105
aF-38.351727076465316
aF601.79518153235097
aa(lp344
I132
aF-49.660235336647268
aF798.76630313282487
aa(lp345
I173
aF-59.338417631574437
aF958.31614664865253
aa(lp346
I196
aF-69.275406671361367
aF1133.7343595678983
aa(lp347
I221
aF-77.926817774697753
aF1258.0824361319198
aa(lp348
I257
aF-85.381417091880408
aF1364.9965637847658
aa(lp349
I300
aF-93.477324341187156
aF1497.9437129959904
aa(lp350
I327
aF-101.41237734458845
aF1635.804780722958
aa(lp351
I374
aF-115.15981369970518
aF1841.5093121095472
aa(lp352
I413
aF-127.21512170638935
aF2051.293310447048
aa(lp353
I456
aF-140.63091604547355
aF2269.214760550788
aa(lp354
I491
aF-152.41513602989031
aF2447.1486139915573
aa(lp355
I518
aF-158.59305686124816
aF2544.7153765849439
aa(lp356
I562
aF-173.93117553824305
aF2797.1594007819999
aa(lp357
I584
aF-183.68748372345519
aF2927.6004998987173
aa(lp358
I604
aF-186.84030987275042
aF2999.5088145726254
aa(lp359
I638
aF-199.97550899784866
aF3208.6114856028757
aa(lp360
I680
aF-221.02929172113926
aF3539.5269314834209
aa(lp361
I706
aF-227.99874533885315
aF3672.0946078367379
aa(lp362
I752
aF-240.81968209428069
aF3860.024305857376
aa(lp363
I794
aF-255.19727111876782
aF4074.253010147891
aa(lp364
I833
aF-266.44498035424692
aF4292.9998014588937
aa(lp365
I853
aF-271.85959276702732
aF4360.8020114746687
aa(lp366
I879
aF-289.40592491058243
aF4614.9409579415023
aa(lp367
I925
aF-297.8216108420952
aF4795.3811580430856
aa(lp368
I955
aF-308.73838139044233
aF4959.0592558130111
aa(lp369
I994
aF-320.90523742222467
aF5129.7500849474909
aa(lp370
I1044
aF-337.83282858059096
aF5395.3645140242461
aa(lp371
I1082
aF-353.21876327832604
aF5660.9728617646315
aa(lp372
I1112
aF-361.26963669468898
aF5751.1403788524158
aa(lp373
I1136
aF-368.72492808735973
aF5881.2997021263873
aa(lp374
I1182
aF-375.67664349042576
aF6015.4532146684733
aa(lp375
I1207
aF-380.12996752503619
aF6073.2657793904964
aa(lp376
I1254
aF-399.67724230397988
aF6372.0897601550114
aa(lp377
I1282
aF-408.25778069969726
aF6565.0000224892456
aa(lp378
I1325
aF-430.08752801905661
aF6885.3473106598431
aa(lp379
I1350
aF-435.84901949899245
aF6978.2966346050307
aa(lp380
I1382
aF-446.24093365193136
aF7132.305453752082
aa(lp381
I1404
aF-451.73449923283437
aF7230.6843627214175
aa(lp382
I1435
aF-460.80507738232569
aF7370.2739866529746
aa(lp383
I1462
aF-468.52884208921523
aF7468.6053301035899
aa(lp384
I1482
aF-479.32112550501955
aF7649.2157093137939
aa(lp385
I1525
aF-488.74718512979024
aF7836.2369578119979
aa(lp386
I1570
aF-501.89587901733137
aF8049.6636616381975
aa(lp387
I1609
aF-518.59521378825184
aF8272.344779733492
aa(lp388
I1653
aF-527.23052359009591
aF8418.8974288349873
aa(lp389
I1696
aF-539.19475166944676
aF8627.8395734074602
aa(lp390
I1744
aF-556.18108018797068
aF8902.9826755607319
aa(lp391
I1794
aF-574.3380108380909
aF9205.6936853080988
aa(lp392
I1824
aF-585.88853046597899
aF9361.3589547831998
aa(lp393
I1867
aF-601.34167500102944
aF9625.306089994383
aa(lp394
I1916
aF-616.284984642577
aF9889.3683750972032
aa(lp395
I1947
aF-628.78745586922662
aF10078.744897925146
aa(lp396
I1971
aF-636.66040588386704
aF10222.629198728377
aa(lp397
I2013
aF-649.04127358622884
aF10400.6171298227
aa(lp398
I2059
aF-668.54937711917046
aF10708.277337428191
aa(lp399
I2108
aF-684.31251253973733
aF10960.049048284603
aa(lp400
I2152
aF-696.73907583803123
aF11144.011154242393
aa(lp401
I2176
aF-705.40968653928121
aF11263.132491139793
aa(lp402
I2211
aF-712.62279396658721
aF11418.434551927041
aa(lp403
I2256
aF-727.59051230845
aF11663.300150936679
aa(lp404
I2302
aF-743.96586350235236
aF11902.876914741031
aa(lp405
I2343
aF-752.51186709355363
aF12067.038037211472
aa(lp406
I2364
aF-762.78928539763774
aF12212.929963030172
aa(lp407
I2392
aF-772.98164553818924
aF12365.044426226885
aa(lp408
I2431
aF-779.83454782587319
aF12487.8627850344
aa(lp409
I2452
aF-788.54576928655217
aF12600.711370014791
aa(lp410
I2472
aF-794.14769637018753
aF12735.718400011097
aa(lp411
I2512
aF-801.42332629654516
aF12871.189603143757
aa(lp412
I2561
aF-816.9331873053261
aF13061.635241316482
aa(lp413
I2592
aF-822.21526606943212
aF13157.035064634989
aa(lp414
I2619
aF-826.61082312794929
aF13205.968426686306
aa(lp415
I2649
aF-838.27138329393347
aF13402.576118451479
aa(lp416
I2671
aF-843.45330358567458
aF13462.463585033123
aa(lp417
I2713
aF-851.60577057714124
aF13640.570703811922
aa(lp418
I2753
aF-861.79470905958624
aF13781.543648913932
aa(lp419
I2803
aF-877.6011867935498
aF14063.559262090757
aa(lp420
I2837
aF-891.11693333379662
aF14240.32677918741
aa(lp421
I2857
aF-896.34471279809213
aF14348.181339211384
aa(lp422
I2894
aF-904.18808382112309
aF14467.761569449554
aa(lp423
I2928
aF-914.29273229344415
aF14642.72534208278
aa(lp424
I2954
aF-921.13399377790245
aF14756.609943555975
aa(lp425
I2980
aF-930.1243118759362
aF14881.225988055729
aa(lp426
I3020
aF-939.62255948577388
aF15029.29570221737
aa(lp427
I3040
aF-950.07281722445509
aF15217.06984223867
aa(lp428
I3080
aF-963.26256255560077
aF15424.227483648894
aa(lp429
I3130
aF-976.72757406555445
aF15639.547457641676
aa(lp430
I3173
aF-992.56885156153749
aF15900.980798039929
aa(lp431
I3211
aF-1004.2283616037356
aF16040.065400068408
aa(lp432
I3260
aF-1018.7140323110061
aF16307.774856885517
aa(lp433
I3281
aF-1024.7454880648095
aF16386.430290525877
aa(lp434
I3330
aF-1037.1722902120678
aF16610.304630679449
aa(lp435
I3352
aF-1045.4674253906624
aF16732.830967671074
aa(lp436
I3402
aF-1064.9163200208102
aF17027.645748815408
aa(lp437
I3439
aF-1073.1918261369292
aF17176.660921262046
aa(lp438
I3460
aF-1078.2207043958308
aF17268.700386680281
aa(lp439
I3507
aF-1095.0904044206097
aF17556.966435988648
aa(lp440
I3527
aF-1099.6203551133967
aF17618.06538213239
aa(lp441
I3562
aF-1107.5770436723626
aF17726.106354473755
aa(lp442
I3598
aF-1115.7556368313533
aF17856.707440118615
aa(lp443
I3618
aF-1119.8787552351876
aF17921.19682553169
aa(lp444
I3648
aF-1131.2765932241587
aF18107.41372876778
aa(lp445
I3682
aF-1143.4853271922495
aF18304.682689656081
aa(lp446
I3708
aF-1152.2777665193935
aF18416.129262993294
aa(lp447
I3731
aF-1156.0879631134487
aF18510.45696888593
aa(lp448
I3767
aF-1169.5281690566462
aF18736.16731373563
aa(lp449
I3799
aF-1178.361831449487
aF18889.831468111181
aa(lp450
I3842
aF-1194.2851592374409
aF19097.348303237741
aa(lp451
I3869
aF-1196.3572935884436
aF19161.156923997332
aa(lp452
I3906
aF-1204.7462712366334
aF19313.553661190177
aa(lp453
I3927
aF-1213.801542533947
aF19436.904945360584
aa(lp454
I3971
aF-1232.4691630393352
aF19731.548379562078
aa(lp455
I3991
aF-1241.9722866252635
aF19854.035380045534
aa(lp456
I4012
aF-1245.3332486333379
aF19935.843023375302
aa(lp457
I4052
aF-1249.7851229308483
aF20048.711534513652
aa(lp458
I4095
aF-1262.4461088919584
aF20219.226054671508
aa(lp459
I4136
aF-1275.8567153427148
aF20431.783279507003
aa(lp460
I4182
aF-1292.9179714787654
aF20701.745915283453
aa(lp461
I4218
aF-1299.7580199748406
aF20833.203202825716
aa(lp462
I4265
aF-1316.877061149341
aF21108.431976500859
aa(lp463
I4305
aF-1327.3255855814173
aF21258.733714924114
aa(lp464
I4351
aF-1340.1646075733727
aF21464.868992259362
aa(lp465
I4379
aF-1350.9246986942428
aF21626.988869097389
aa(lp466
I4401
aF-1357.5244984581416
aF21746.648761494656
aa(lp467
I4450
aF-1367.9647651948335
aF21906.230940591588
aa(lp468
I4483
aF-1371.1265428258869
aF21980.65011287812
aa(lp469
I4529
aF-1388.3269352940983
aF22231.887187943459
aa(lp470
I4576
aF-1401.9470396908546
aF22450.608950529917
aa(lp471
I4619
aF-1410.7431048924007
aF22583.570565717659
aa(lp472
I4648
aF-1420.6607879414962
aF22755.002110493559
aa(lp473
I4678
aF-1438.2276908064657
aF23033.435057351013
aa(lp474
I4726
aF-1453.2116314594234
aF23285.489039155924
aa(lp475
I4753
aF-1458.1362448595719
aF23349.252463313289
aa(lp476
I4773
aF-1467.3753724048775
aF23498.595320981633
aa(lp477
I4802
aF-1479.027898003947
aF23670.575411269663
aa(lp478
I4852
aF-1494.985128479148
aF23930.043135944034
aa(lp479
I4876
aF-1502.6005370315343
aF24090.099889122361
aa(lp480
I4910
aF-1515.5560946271132
aF24258.470718464931
aaa(lp481
(lp482
I0
aF0
aF0
aa(lp483
I35
aF85.178925145281411
aF29.976623043712301
aa(lp484
I57
aF93.699764135496835
aF33.252373667470849
aa(lp485
I104
aF329.83425884386429
aF116.00938986941397
aa(lp486
I143
aF458.76415186758169
aF159.55804980357016
aa(lp487
I184
aF531.48395825291925
aF185.39504463144183
aa(lp488
I228
aF736.48440587993991
aF258.75913776149645
aa(lp489
I261
aF889.03898342850698
aF312.27056347819655
aa(lp490
I303
aF1063.1759257847521
aF373.09539528088692
aa(lp491
I338
aF1190.5459778405937
aF417.98427716461481
aa(lp492
I388
aF1417.503530713642
aF495.75305277660266
aa(lp493
I408
aF1484.8158171586542
aF519.39447611964817
aa(lp494
I455
aF1728.6482380121195
aF607.6551912955515
aa(lp495
I495
aF1891.4181136034629
aF663.85732439450578
aa(lp496
I543
aF2110.8283574444722
aF739.09558556347622
aa(lp497
I573
aF2281.0232816102739
aF798.95247613278752
aa(lp498
I608
aF2458.1045166226259
aF861.03313464083192
aa(lp499
I631
aF2553.2309613356128
aF896.28889773161575
aa(lp500
I671
aF2720.4218739342705
aF956.23235205431365
aa(lp501
I694
aF2864.9178408933258
aF1003.9028448753963
aa(lp502
I738
aF3073.5016333982903
aF1078.0594256415659
aa(lp503
I783
aF3242.3694479772425
aF1137.0999248735689
aa(lp504
I829
aF3384.4021770577438
aF1188.0026327938433
aa(lp505
I870
aF3508.4316258289364
aF1231.6639054058169
aa(lp506
I892
aF3633.4430135154912
aF1272.9629221206912
aa(lp507
I920
aF3764.7980024404683
aF1321.1060857345587
aa(lp508
I966
aF3949.8831634119019
aF1385.6827786471983
aa(lp509
I1014
aF4182.572517779211
aF1467.2602402682858
aa(lp510
I1062
aF4343.0310875454043
aF1523.6971485022423
aa(lp511
I1107
aF4490.3536054162205
aF1575.6267070036488
aa(lp512
I1133
aF4668.7014843409579
aF1637.8643994564902
aa(lp513
I1182
aF4853.9400095088477
aF1701.8398547130207
aa(lp514
I1213
aF4999.1543887674306
aF1754.5626042997842
aa(lp515
I1250
aF5225.3565046854446
aF1832.3438932548806
aa(lp516
I1291
aF5468.9510299406274
aF1918.7919046308091
aa(lp517
I1320
aF5602.6008732494374
aF1964.2330801430719
aa(lp518
I1352
aF5648.4075052522867
aF1982.0111522929546
aa(lp519
I1379
aF5792.9129244347978
aF2032.0409326865654
aa(lp520
I1399
aF5968.0569477427898
aF2096.1321770728646
aa(lp521
I1423
aF6084.0695370552967
aF2133.0980741204107
aa(lp522
I1452
aF6233.4574306234281
aF2187.9979082292243
aa(lp523
I1493
aF6393.489768657334
aF2241.8724437722444
aa(lp524
I1525
aF6588.0975933446589
aF2309.9204891210552
aa(lp525
I1558
aF6690.3050257663508
aF2346.0542367119219
aa(lp526
I1600
aF6838.7816248679819
aF2396.9983183205823
aa(lp527
I1625
aF6953.6577396304401
aF2436.474975458098
aa(lp528
I1659
aF7220.5894976835998
aF2533.4748140534948
aa(lp529
I1706
aF7382.9088530057497
aF2590.7200790303823
aa(lp530
I1732
aF7521.9734186457581
aF2640.20442236188
aa(lp531
I1761
aF7714.5170805461485
aF2705.3028359892833
aa(lp532
I1801
aF7906.32940261763
aF2773.9941651338727
aa(lp533
I1828
aF8056.3490821566429
aF2825.8721093974141
aa(lp534
I1871
aF8270.2536927611254
aF2902.8338759826829
aa(lp535
I1914
aF8525.7590924022934
aF2990.0129548767459
aa(lp536
I1949
aF8756.1530327662476
aF3069.7452636627099
aa(lp537
I1976
aF8914.1166235710698
aF3124.5154839707907
aa(lp538
I2021
aF9153.6372574302641
aF3210.7173084115707
aa(lp539
I2047
aF9357.7140328700953
aF3281.7155068534953
aa(lp540
I2079
aF9547.3908431129366
aF3349.200945842776
aa(lp541
I2108
aF9709.8572530571146
aF3405.2237114478612
aa(lp542
I2146
aF9913.6990398563084
aF3478.1000605584977
aa(lp543
I2174
aF10091.743734738313
aF3539.5988413515533
aa(lp544
I2197
aF10165.281102655374
aF3567.4985093148348
aa(lp545
I2224
aF10273.027477156633
aF3603.0107230136755
aa(lp546
I2268
aF10477.317560817934
aF3676.7528882848678
aa(lp547
I2303
aF10555.435556553859
aF3702.2606304282958
aa(lp548
I2351
aF10784.134300652766
aF3782.5901720885968
aa(lp549
I2380
aF10927.799804843704
aF3830.7854924163244
aa(lp550
I2408
aF11050.386768372295
aF3876.926579730617
aa(lp551
I2449
aF11194.9853669289
aF3928.3050618976022
aa(lp552
I2470
aF11248.932739977032
aF3947.3552444352167
aa(lp553
I2513
aF11476.21318065042
aF4025.3914995141395
aa(lp554
I2539
aF11591.965404511855
aF4065.6109626613634
aa(lp555
I2586
aF11831.889421334752
aF4151.4649580458836
aa(lp556
I2636
aF12028.479631519116
aF4217.6229831803594
aa(lp557
I2677
aF12292.376963843521
aF4311.4184730809247
aa(lp558
I2717
aF12388.089282909792
aF4346.9157594674798
aa(lp559
I2757
aF12581.258968466533
aF4413.6207792950481
aa(lp560
I2800
aF12874.164657230607
aF4515.6940524506044
aa(lp561
I2822
aF12933.251309193969
aF4538.8975690447478
aa(lp562
I2856
aF13111.543818795675
aF4599.2628340192123
aa(lp563
I2893
aF13274.111467370276
aF4656.460858236097
aa(lp564
I2936
aF13409.643572426938
aF4703.456757712991
aa(lp565
I2965
aF13517.081538059289
aF4742.1527256493546
aa(lp566
I2998
aF13648.413319995903
aF4785.8397032265257
aa(lp567
I3048
aF13840.989097477506
aF4854.3563683555667
aa(lp568
I3088
aF14011.955317970866
aF4915.2156191083805
aa(lp569
I3121
aF14171.182153231053
aF4972.7902363186377
aa(lp570
I3160
aF14356.356982864125
aF5034.6894471564892
aa(lp571
I3200
aF14521.312722817345
aF5092.7606915647466
aa(lp572
I3227
aF14666.740782831987
aF5143.8799673293379
aa(lp573
I3248
aF14750.84506990408
aF5173.2520406354388
aa(lp574
I3274
aF14814.434970538341
aF5197.6011080861454
aa(lp575
I3309
aF15060.240270852568
aF5282.7802775338096
aa(lp576
I3355
aF15329.511179048503
aF5376.3633345255384
aa(lp577
I3401
aF15482.608809522868
aF5431.1824420698749
aa(lp578
I3444
aF15679.403590166528
aF5501.9809797839889
aa(lp579
I3466
aF15778.125203401209
aF5534.1100567408384
aa(lp580
I3500
aF15873.240878934306
aF5567.6395896066388
aa(lp581
I3541
aF16089.437277283883
aF5643.0827590930512
aa(lp582
I3561
aF16194.970009113258
aF5679.6468409357303
aa(lp583
I3599
aF16394.116009348327
aF5750.8083077865313
aa(lp584
I3644
aF16667.893387564225
aF5848.6276965171037
aa(lp585
I3668
aF16807.834184253956
aF5895.0210097737654
aa(lp586
I3703
aF17028.966969675865
aF5972.0870087863586
aa(lp587
I3739
aF17149.369877556685
aF6014.4151430577194
aa(lp588
I3760
aF17297.078936691312
aF6067.9454220803018
aa(lp589
I3807
aF17549.626531007092
aF6155.7592496052303
aa(lp590
I3850
aF17720.709624462059
aF6216.558800457381
aa(lp591
I3892
aF17858.961563632882
aF6264.5593546752998
aa(lp592
I3921
aF18030.161231288293
aF6323.7232811806725
aa(lp593
I3958
aF18220.746077131291
aF6390.7339696298613
aa(lp594
I4008
aF18486.859826908898
aF6484.7496394294585
aa(lp595
I4031
aF18617.669006207299
aF6528.8299186262493
aa(lp596
I4052
aF18632.272523762487
aF6534.1316570267127
aa(lp597
I4080
aF18769.802726889247
aF6584.9894197598624
aa(lp598
I4126
aF18963.139314067015
aF6652.0720145167434
aaa(lp599
(lp600
I0
aF0
aF-0
aa(lp601
I48
aF-86.707361364503569
aF-202.9816221176136
aa(lp602
I84
aF-202.17032479006937
aF-470.62528229923834
aa(lp603
I130
aF-283.58117932636674
aF-658.61619593997477
aa(lp604
I180
aF-344.9365630734406
aF-809.34087021409573
aa(lp605
I229
aF-476.51144662167746
aF-1110.0786595544234
aa(lp606
I253
aF-512.67691829429009
aF-1192.255449492586
aa(lp607
I279
aF-524.56602164121239
aF-1221.1021833065051
aa(lp608
I323
aF-603.65977397322263
aF-1405.9670491160462
aa(lp609
I350
aF-665.51620538831673
aF-1546.1711025721881
aa(lp610
I376
aF-738.51399340176636
aF-1718.1946754707553
aa(lp611
I403
aF-795.05750171420891
aF-1849.1701030436138
aa(lp612
I450
aF-847.40577989304541
aF-1974.9012104058143
aa(lp613
I480
aF-916.13508131541857
aF-2137.3579892017387
aa(lp614
I521
aF-984.10194194690189
aF-2292.4257113816266
aa(lp615
I545
aF-1027.3095558137131
aF-2392.1447564820601
aa(lp616
I567
aF-1028.3996710862752
aF-2391.1687224063871
aa(lp617
I611
aF-1108.1513442158141
aF-2582.4806763537936
aa(lp618
I632
aF-1143.02856065176
aF-2665.3076478715966
aa(lp619
I662
aF-1174.3281951064816
aF-2730.1332897277566
aa(lp620
I692
aF-1231.3088509253596
aF-2870.6905005671811
aa(lp621
I721
aF-1268.2184516297229
aF-2949.6779921325619
aa(lp622
I770
aF-1393.7806735893455
aF-3245.6717112131905
aa(lp623
I810
aF-1501.5639506548564
aF-3495.3622722004652
aa(lp624
I836
aF-1514.6424950263913
aF-3528.8653664210233
aa(lp625
I867
aF-1579.7177476658544
aF-3679.1610593131768
aa(lp626
I901
aF-1650.8634351031785
aF-3844.1969419352044
aa(lp627
I947
aF-1785.7895828468334
aF-4157.512669285733
aa(lp628
I973
aF-1829.9474114059349
aF-4262.0612218568867
aa(lp629
I1011
aF-1887.7519637834541
aF-4397.0176993909863
aa(lp630
I1058
aF-1972.8202258937363
aF-4593.7885759681321
aa(lp631
I1104
aF-2040.7140878086457
aF-4752.2556946971908
aa(lp632
I1130
aF-2121.0041502881145
aF-4939.4496932221327
aa(lp633
I1168
aF-2200.7678164863801
aF-5128.174277254132
aa(lp634
I1216
aF-2319.5694764965992
aF-5399.4665842192808
aa(lp635
I1245
aF-2383.9016990666887
aF-5550.0897982427823
aa(lp636
I1282
aF-2470.3211553170763
aF-5752.5553036884785
aa(lp637
I1303
aF-2522.923005042242
aF-5872.4831474961029
aa(lp638
I1328
aF-2549.6254836144963
aF-5936.8191556263228
aa(lp639
I1370
aF-2676.719654707892
aF-6234.7528461416432
aa(lp640
I1412
aF-2740.0202250141051
aF-6377.9802889088278
aa(lp641
I1454
aF-2824.1244429569347
aF-6581.3562400905375
aa(lp642
I1479
aF-2887.7305020866202
aF-6725.3993081268691
aa(lp643
I1526
aF-2975.534984697792
aF-6934.0595682404473
aa(lp644
I1556
aF-3019.9131975919054
aF-7032.3346572082883
aa(lp645
I1596
aF-3095.7693098599311
aF-7209.0280694057992
aa(lp646
I1627
aF-3158.8677671181977
aF-7352.2271120798659
aa(lp647
I1664
aF-3218.6044076679273
aF-7496.8442452968857
aa(lp648
I1686
aF-3268.2034749403515
aF-7608.8977218496902
aa(lp649
I1722
aF-3308.9071266839587
aF-7701.9589622741587
aa(lp650
I1744
aF-3327.0193224168161
aF-7744.2880487181483
aa(lp651
I1770
aF-3396.8529038600341
aF-7907.0450395671196
aa(lp652
I1800
aF-3441.0915758195529
aF-8006.5220575639933
aa(lp653
I1848
aF-3560.662248372691
aF-8292.265873354123
aa(lp654
I1875
aF-3623.9318135464832
aF-8443.2780149202044
aa(lp655
I1907
aF-3688.8331062575253
aF-8588.7796698263901
aa(lp656
I1934
aF-3740.6230593949749
aF-8714.1221987449371
aa(lp657
I1971
aF-3834.0469124349916
aF-8930.7870704587003
aa(lp658
I2013
aF-3932.03661836935
aF-9157.7362780823805
aa(lp659
I2035
aF-3985.200845702841
aF-9281.9476144360779
aa(lp660
I2079
aF-4040.4118749807353
aF-9413.2841617750128
aa(lp661
I2114
aF-4126.696012925745
aF-9607.1121390544795
aa(lp662
I2146
aF-4200.8227103684658
aF-9782.4646276597869
aa(lp663
I2185
aF-4310.7476213957598
aF-10035.211002508917
aa(lp664
I2229
aF-4434.7596882566959
aF-10331.60351589924
aa(lp665
I2265
aF-4497.9201337302175
aF-10475.509898549801
aa(lp666
I2300
aF-4552.7263092804078
aF-10602.55565865033
aa(lp667
I2323
aF-4636.3402014951707
aF-10804.368723535288
aa(lp668
I2358
aF-4708.6583194721825
aF-10966.295235022551
aa(lp669
I2381
aF-4784.957894683881
aF-11146.54937807034
aa(lp670
I2426
aF-4869.7481924050981
aF-11339.903161763814
aa(lp671
I2448
aF-4926.1561919823562
aF-11474.723595277552
aa(lp672
I2495
aF-4982.7991239552412
aF-11599.506482526942
aa(lp673
I2540
aF-5070.1275837489802
aF-11805.550262928498
aa(lp674
I2580
aF-5149.6196731790787
aF-11995.015779317617
aa(lp675
I2602
aF-5204.8442875929177
aF-12123.270094470741
aa(lp676
I2637
aF-5301.9435134143978
aF-12349.035134621734
aa(lp677
I2667
aF-5361.771766436832
aF-12486.187505041078
aa(lp678
I2694
aF-5430.1693298985347
aF-12647.518625089575
aa(lp679
I2741
aF-5485.2830113185373
aF-12772.367166662805
aa(lp680
I2790
aF-5598.0009382837543
aF-13036.534117736273
aa(lp681
I2833
aF-5673.0405950447484
aF-13211.362603530313
aa(lp682
I2857
aF-5738.7758432027804
aF-13362.972123162186
aa(lp683
I2886
aF-5771.7376850493711
aF-13441.720728079727
aa(lp684
I2914
aF-5814.8753650343451
aF-13540.130452640577
aaa(lp685
(lp686
I0
aF0
aF0
aa(lp687
I31
aF134.53702242220086
aF51.167617631127563
aa(lp688
I68
aF322.84180148605469
aF123.75070883443433
aa(lp689
I88
aF346.30086940284173
aF132.21698233435731
aa(lp690
I112
aF410.15416941148067
aF156.69088884494153
aa(lp691
I159
aF518.77096692739326
aF198.76761555133922
aa(lp692
I206
aF768.20213239790314
aF294.0391204372242
aa(lp693
I256
aF1073.223318669588
aF407.88356330006906
aa(lp694
I276
aF1150.5101506894875
aF439.94467765239614
aa(lp695
I312
aF1344.6413176410913
aF514.64729262629078
aa(lp696
I353
aF1533.5913466535219
aF587.01251939993824
aa(lp697
I391
aF1725.0065123151464
aF658.19257491350447
aa(lp698
I421
aF1919.5030418493827
aF734.21176564535028
aa(lp699
I449
aF2036.614367550402
aF778.3558474776554
aa(lp700
I497
aF2323.7361358269995
aF887.46229904686788
aa(lp701
I534
aF2485.3370518712036
aF948.9020096863527
aa(lp702
I570
aF2674.5992424804531
aF1024.4450505804191
aa(lp703
I619
aF2970.8936355966443
aF1137.0874802414219
aa(lp704
I652
aF3098.1987712231494
aF1184.2768859366356
aa(lp705
I688
aF3248.5629521279402
aF1243.4121165896679
aa(lp706
I708
aF3326.3780678281819
aF1272.8199196873038
aa(lp707
I745
aF3525.6688772725101
aF1348.9039445014455
aa(lp708
I788
aF3723.6234194225308
aF1425.376789269101
aa(lp709
I822
aF3918.1201546092293
aF1498.7885422705663
aa(lp710
I847
aF4063.310791697651
aF1552.3912816976135
aa(lp711
I896
aF4346.9202319486449
aF1663.002989194114
aa(lp712
I924
aF4548.0568609709053
aF1738.42379157303
aa(lp713
I955
aF4672.5434697392166
aF1789.6114562361004
aa(lp714
I999
aF4847.7607534153167
aF1852.5572882496515
aa(lp715
I1034
aF5043.9957146961242
aF1928.1193415108814
aa(lp716
I1082
aF5246.737836840096
aF2006.4053507790736
aa(lp717
I1127
aF5516.1690580055038
aF2109.9182629706288
aa(lp718
I1159
aF5643.0267923043748
aF2158.9323333258662
aa(lp719
I1190
aF5813.4803436326774
aF2220.6246590537721
aa(lp720
I1219
aF5961.6793682534462
aF2278.738819002072
aa(lp721
I1250
aF6171.5691357586666
aF2360.543424144736
aa(lp722
I1274
aF6289.3244329639811
aF2406.4779770403279
aa(lp723
I1311
aF6497.6816141506288
aF2484.967347005525
aa(lp724
I1337
aF6557.3835469578917
aF2507.5444346835302
aa(lp725
I1372
aF6697.3492509832395
aF2561.2364587939123
aa(lp726
I1419
aF6960.4364294997631
aF2660.8453775851704
aa(lp727
I1453
aF7110.7618747352853
aF2718.3598585126501
aa(lp728
I1485
aF7276.0563621824231
aF2783.6640284427076
aa(lp729
I1517
aF7354.6056863527729
aF2810.738817873415
aa(lp730
I1543
aF7522.8227136697287
aF2875.5948677716392
aa(lp731
I1585
aF7631.8056840043655
aF2916.6140276443321
aa(lp732
I1616
aF7833.423032762018
aF2994.518482619389
aa(lp733
I1664
aF8000.3561712119435
aF3059.7890960600816
aa(lp734
I1694
aF8126.1580037409485
aF3106.1017207333975
aa(lp735
I1718
aF8209.9807031383443
aF3137.825085916611
aa(lp736
I1752
aF8377.074842069278
aF3202.0911261563519
aa(lp737
I1782
aF8499.4480211790724
aF3250.0125099071342
aa(lp738
I1824
aF8655.5401447365293
aF3309.0233018018125
aa(lp739
I1864
aF8905.5733170051008
aF3405.1472089190265
aa(lp740
I1902
aF9049.3029861086088
aF3458.8923053212775
aa(lp741
I1930
aF9152.9454986523706
aF3499.6329142174309
aa(lp742
I1967
aF9348.556803931775
aF3574.7766975800541
aa(lp743
I2009
aF9538.9403235887839
aF3645.7232906798858
aa(lp744
I2051
aF9720.7843521657105
aF3716.7117063740616
aa(lp745
I2095
aF9909.5153298309178
aF3788.0670953609256
aa(lp746
I2125
aF10010.152140323224
aF3827.4561579996839
aa(lp747
I2149
aF10114.650953888262
aF3865.9348843706302
aa(lp748
I2174
aF10195.259521871565
aF3897.6182342977363
aa(lp749
I2194
aF10265.358439591753
aF3923.5348835530503
aa(lp750
I2234
aF10479.185820876919
aF4006.5972458777737
aa(lp751
I2268
aF10600.291866191508
aF4052.6507785952476
aa(lp752
I2308
aF10769.364839483693
aF4117.2996308368147
aa(lp753
I2332
aF10918.691009762939
aF4175.187014194953
aa(lp754
I2368
aF11032.70584084431
aF4218.4738734402754
aa(lp755
I2388
aF11110.916051560407
aF4245.9507085090127
aa(lp756
I2425
aF11248.394205911834
aF4300.7767359026484
aa(lp757
I2470
aF11446.876747961147
aF4375.8252128795857
aa(lp758
I2511
aF11652.256904143615
aF4454.539672193624
aa(lp759
I2542
aF11749.818306399193
aF4493.2977690044791
aa(lp760
I2565
aF11920.473908372232
aF4558.3672594836498
aa(lp761
I2603
aF12147.258745734009
aF4642.3369782156096
aa(lp762
I2638
aF12360.829739558019
aF4723.8233572176459
aa(lp763
I2676
aF12606.226539966467
aF4819.6346709695608
aaa(lp764
(lp765
I0
aF0
aF0
aa(lp766
I22
aF96.771311618918205
aF-130.11222552177333
aa(lp767
I67
aF272.21902760762384
aF-364.72440729010623
aa(lp768
I110
aF438.54152929245203
aF-588.53259115937237
aa(lp769
I139
aF509.31131098990505
aF-684.04587785054377
aa(lp770
I188
aF678.78700387296078
aF-913.87809384616833
aa(lp771
I226
aF746.86363659010931
aF-1000.6241130395008
aa(lp772
I252
aF859.13013423334189
aF-1152.198676181805
aa(lp773
I299
aF1028.0909493521144
aF-1380.5058102485932
aa(lp774
I325
aF1111.3867016257568
aF-1489.0131158474815
aa(lp775
I358
aF1227.3370126952518
aF-1646.3469000589316
aa(lp776
I406
aF1322.7573187114226
aF-1771.2667687647311
aa(lp777
I437
aF1453.9104524903332
aF-1952.2860485976817
aa(lp778
I486
aF1585.2056283017473
aF-2126.6707632369148
aa(lp779
I527
aF1690.5909352208482
aF-2265.491252639752
aa(lp780
I550
aF1760.5113851788735
aF-2364.5834096002582
aa(lp781
I572
aF1841.1425502454208
aF-2469.6612894497343
aa(lp782
I606
aF1956.6578016897886
aF-2625.7782067596399
aa(lp783
I650
aF2127.0036666421779
aF-2852.8364787779497
aa(lp784
I671
aF2183.4532089633394
aF-2927.8365965985472
aa(lp785
I705
aF2226.5491302653613
aF-2987.4780785997027
aa(lp786
I748
aF2384.2869401189791
aF-3197.4521747662416
aa(lp787
I772
aF2421.9599734620147
aF-3246.2863470323346
aa(lp788
I796
aF2516.2986768754872
aF-3373.0932090503206
aa(lp789
I841
aF2665.4995677302923
aF-3574.1503746666453
aa(lp790
I883
aF2777.8673456847405
aF-3729.0860541337165
aa(lp791
I909
aF2862.4758841790012
aF-3839.4572223087025
aa(lp792
I930
aF2974.3649688443297
aF-3988.0453064498579
aa(lp793
I950
aF3082.7189556952999
aF-4134.0066976408561
aa(lp794
I999
aF3242.8699611578163
aF-4350.4202520796998
aa(lp795
I1042
aF3438.2065444526652
aF-4607.9247058199862
aa(lp796
I1083
aF3516.2312516174757
aF-4717.3218513618876
aa(lp797
I1112
aF3614.385674218338
aF-4849.1916894262667
aa(lp798
I1145
aF3726.8466712188542
aF-5000.5158157795831
aa(lp799
I1194
aF3876.8685005426032
aF-5202.1651093734017
aa(lp800
I1234
aF3978.8535017264935
aF-5340.7801412145245
aa(lp801
I1267
aF4093.759910508325
aF-5489.8974247734632
aa(lp802
I1305
aF4257.5370549901654
aF-5711.6785790505328
aa(lp803
I1326
aF4325.7002661607648
aF-5801.5033768441999
aa(lp804
I1353
aF4403.6100847089583
aF-5906.5841491043311
aa(lp805
I1381
aF4454.5232549416878
aF-5975.8382663575703
aa(lp806
I1413
aF4559.302247127348
aF-6117.7873520910189
aa(lp807
I1453
aF4680.7916117196282
aF-6279.139309537908
aa(lp808
I1482
aF4759.3788117479689
aF-6381.4575880675848
aa(lp809
I1513
aF4936.5409681549045
aF-6621.6922388074709
aa(lp810
I1560
aF5056.8259406726993
aF-6783.7510023945624
aa(lp811
I1582
aF5114.4961208983204
aF-6860.8687973140677
aa(lp812
I1613
aF5149.4918046285857
aF-6909.9732314267449
aa(lp813
I1649
aF5225.3568991708798
aF-7009.8504603527072
aa(lp814
I1678
aF5240.597738177139
aF-7031.4345842641969
aa(lp815
I1702
aF5369.6000355341084
aF-7204.8077607811401
aa(lp816
I1752
aF5564.2401102191143
aF-7462.7921340583089
aa(lp817
I1777
aF5640.5697123321834
aF-7565.0650521589459
aa(lp818
I1806
aF5714.5357304502368
aF-7666.2480674312928
aa(lp819
I1852
aF5826.8483002920411
aF-7816.586979797843
aa(lp820
I1894
aF5921.2203546554219
aF-7941.4785506317121
aa(lp821
I1940
aF6113.0194990410437
aF-8204.2338578107065
aa(lp822
I1964
aF6151.7076343529588
aF-8252.8180760844898
aa(lp823
I2011
aF6255.2495542087381
aF-8388.2841219933489
aa(lp824
I2050
aF6335.9651832546779
aF-8500.685340416765
aa(lp825
I2092
aF6430.7069016512714
aF-8627.8970823944255
aa(lp826
I2131
aF6582.5834925343124
aF-8829.1007396144523
aa(lp827
I2157
aF6689.7315513447138
aF-8971.7270987172888
aa(lp828
I2192
aF6784.1476948692534
aF-9100.2793166851279
aa(lp829
I2230
aF6889.2679299981464
aF-9242.8425154452671
aa(lp830
I2269
aF7009.2197528432744
aF-9402.005103563617
aa(lp831
I2304
aF7120.3386899486413
aF-9547.3418739489098
aa(lp832
I2330
aF7224.2098382701251
aF-9689.6698788021822
aa(lp833
I2358
aF7286.8656219631512
aF-9777.2169519232466
aa(lp834
I2407
aF7400.3543633235749
aF-9928.8316135690493
aa(lp835
I2452
aF7512.9107163149347
aF-10076.651750551211
aa(lp836
I2472
aF7549.7157005576173
aF-10131.465047931797
aa(lp837
I2506
aF7632.4760712689067
aF-10239.497159395489
aa(lp838
I2532
aF7712.846992773907
aF-10344.215410110784
aa(lp839
I2561
aF7835.9570071505714
aF-10514.599571253244
aa(lp840
I2593
aF7944.242209235721
aF-10655.217762600447
aa(lp841
I2623
aF8066.6594629878846
aF-10820.790160398226
aa(lp842
I2643
aF8107.6095537368737
aF-10878.533073304383
aa(lp843
I2685
aF8205.3892908668731
aF-11009.307839194687
aa(lp844
I2735
aF8392.9055116186973
aF-11260.106044479207
aa(lp845
I2763
aF8512.2901255216893
aF-11417.40865319041
aa(lp846
I2796
aF8623.9866198692653
aF-11567.671661630278
aa(lp847
I2837
aF8699.1639992371092
aF-11669.973464578499
aa(lp848
I2863
aF8747.9824666025434
aF-11736.25632828977
aa(lp849
I2908
aF8865.8309356966802
aF-11893.685557020797
aa(lp850
I2945
aF9022.3968725318246
aF-12100.325387406654
aa(lp851
I2987
aF9165.6570490299928
aF-12296.359231728595
aa(lp852
I3024
aF9290.009195439261
aF-12464.487065757083
aa(lp853
I3054
aF9327.1970931691121
aF-12509.798931883481
aaa(lp854
(lp855
I0
aF0
aF0
aa(lp856
I43
aF276.19448459743626
aF-21.998151196396719
aa(lp857
I65
aF351.21156097385182
aF-26.335329494259689
aa(lp858
I105
aF564.92418121210585
aF-44.426853275409727
aa(lp859
I152
aF833.35391089621805
aF-62.379296290506311
aa(lp860
I200
aF1044.0998248411736
aF-80.550591168343772
aa(lp861
I242
aF1277.6466546820923
aF-95.953494867087315
aa(lp862
I267
aF1390.229987760503
aF-106.9568450634254
aa(lp863
I310
aF1710.210820074876
aF-132.95993656863735
aa(lp864
I359
aF1914.4781496405958
aF-148.6101726968746
aa(lp865
I394
aF2052.9067032093894
aF-159.61179195264583
aa(lp866
I435
aF2187.0627965056256
aF-169.60134281943442
aa(lp867
I483
aF2362.9988678797454
aF-182.76724005845409
aa(lp868
I515
aF2510.4569106871008
aF-193.05532557785375
aa(lp869
I562
aF2730.4298602665058
aF-210.94595852606773
aa(lp870
I599
aF2941.2729825862116
aF-225.87169869337723
aa(lp871
I626
aF3193.5920473113742
aF-246.94039504723537
aa(lp872
I666
aF3332.1288997298207
aF-256.98262592111826
aa(lp873
I711
aF3599.6605793148801
aF-278.19732683182104
aa(lp874
I751
aF3854.3743175403797
aF-298.61189512253219
aa(lp875
I789
aF4051.4391916795403
aF-313.07481737348525
aa(lp876
I812
aF4174.1064049227361
aF-323.411487962308
aa(lp877
I836
aF4329.763160352456
aF-332.40284266630084
aa(lp878
I860
aF4440.9408630843782
aF-343.99962706784737
aa(lp879
I898
aF4553.7638378318024
aF-353.65846261636142
aa(lp880
I935
aF4737.099639729975
aF-366.24559270627674
aa(lp881
I957
aF4778.5420257569913
aF-367.75642281074107
aa(lp882
I977
aF4872.939067668156
aF-377.05818805075432
aa(lp883
I1001
aF5012.6126976442001
aF-385.58122132625937
aa(lp884
I1029
aF5199.8135299183532
aF-400.23792410981559
aa(lp885
I1055
aF5319.3318924332843
aF-410.86376706790156
aa(lp886
I1093
aF5576.0000707541276
aF-431.18989536378473
aa(lp887
I1124
aF5743.654224572434
aF-443.06127178442563
aa(lp888
I1168
aF5989.4394976961303
aF-461.87021817015267
aa(lp889
I1215
aF6284.2125878280558
aF-483.76983386627865
aa(lp890
I1256
aF6486.620397207218
aF-500.4302065887735
aa(lp891
I1277
aF6558.5695955750825
aF-505.37069814829835
aa(lp892
I1313
aF6763.2115403411235
aF-522.19278735237845
aa(lp893
I1337
aF6836.7704719861031
aF-531.05254626591818
aa(lp894
I1382
aF7065.3184938823943
aF-545.44307782998339
aa(lp895
I1430
aF7257.0899937357544
aF-560.79004634018327
aa(lp896
I1480
aF7438.5802733145465
aF-574.73499942809497
aa(lp897
I1528
aF7602.6143907958176
aF-586.96040916117306
aa(lp898
I1571
aF7903.2103654624516
aF-610.26781723487284
aa(lp899
I1609
aF8129.1113146542566
aF-627.23085293628765
aa(lp900
I1647
aF8368.1538965149175
aF-645.92521172466286
aa(lp901
I1682
aF8550.9980451502306
aF-661.20548191020578
aa(lp902
I1714
aF8685.5970136553642
aF-671.23607340756939
aa(lp903
I1737
aF8855.6695653697498
aF-683.27279429377745
aa(lp904
I1759
aF9025.2657025953285
aF-696.3430922928884
aa(lp905
I1779
aF9189.6454741416183
aF-708.00792608844188
aa(lp906
I1826
aF9444.541162250458
aF-728.47612819162384
aa(lp907
I1871
aF9634.4961963577662
aF-742.82246074046236
aa(lp908
I1921
aF9863.1442235891136
aF-762.25627222640128
aa(lp909
I1961
aF10017.036664119669
aF-772.19764481649827
aa(lp910
I1991
aF10157.184588757693
aF-784.97566762251245
aa(lp911
I2031
aF10434.183603554779
aF-807.63116736365851
aa(lp912
I2070
aF10667.538915258563
aF-823.60482251459382
aa(lp913
I2094
aF10773.356967403355
aF-829.87488694140222
aa(lp914
I2136
aF11047.172675596008
aF-852.44565251674646
aa(lp915
I2179
aF11194.09550601006
aF-866.13689326712836
aa(lp916
I2204
aF11308.853973753436
aF-872.96400609138675
aa(lp917
I2224
aF11414.578545813059
aF-880.21102861847703
aa(lp918
I2249
aF11468.43842491913
aF-885.90270233539331
aa(lp919
I2291
aF11755.412572737105
aF-909.36528329515147
aa(lp920
I2336
aF11992.220372889486
aF-926.22789364618131
aa(lp921
I2375
aF12120.04934584434
aF-936.75898685683558
aa(lp922
I2421
aF12376.530798484448
aF-955.12462259040035
aa(lp923
I2466
aF12613.338710604316
aF-974.69534471628481
aa(lp924
I2501
aF12788.893690380475
aF-986.42640922670159
aa(lp925
I2533
aF12910.050377458047
aF-996.75285243201131
aa(lp926
I2570
aF12981.550705017769
aF-1002.2051188611601
aa(lp927
I2606
aF13231.093378502968
aF-1021.9161036006799
aa(lp928
I2654
aF13552.008765570044
aF-1045.0044593224702
aa(lp929
I2700
aF13773.345554985061
aF-1062.4265547232906
aa(lp930
I2735
aF13958.547837774942
aF-1077.8765215573487
aa(lp931
I2783
aF14153.539554824221
aF-1093.5481938081148
aa(lp932
I2822
aF14393.446609049679
aF-1111.4235003675624
aa(lp933
I2851
aF14573.895484180004
aF-1124.882597816111
aa(lp934
I2895
aF14787.950218951799
aF-1141.3888463410817
aa(lp935
I2917
aF14809.57832792955
aF-1142.5487528178498
aa(lp936
I2967
aF15091.035043648519
aF-1166.8858184586661
aa(lp937
I3014
aF15273.512566343816
aF-1178.642556339973
aa(lp938
I3046
aF15459.92852917703
aF-1195.2306733785113
aa(lp939
I3079
aF15655.981693953754
aF-1207.9219046782332
aa(lp940
I3128
aF15952.200127737642
aF-1231.0699403985725
aa(lp941
I3159
aF16071.545263894168
aF-1240.5032178856472
aaa(lp942
(lp943
I0
aF-0
aF0
aa(lp944
I48
aF-196.75032487988349
aF202.44014475546427
aa(lp945
I70
aF-287.34716946240945
aF293.86635913181868
aa(lp946
I93
aF-363.29829699699752
aF370.52214763727852
aa(lp947
I127
aF-511.15727407445024
aF522.74923832051763
aa(lp948
I158
aF-585.11472240260002
aF597.03154356362177
aa(lp949
I182
aF-713.00302660887769
aF727.52485167153566
aa(lp950
I231
aF-857.03519144433608
aF873.71652640898083
aa(lp951
I267
aF-907.5401477351387
aF925.64578337645708
aa(lp952
I311
aF-1044.1896975276841
aF1064.837582762814
aa(lp953
I351
aF-1159.67266330914
aF1179.9835435007355
aa(lp954
I380
aF-1288.9890546507243
aF1313.4800734684006
aa(lp955
I419
aF-1375.3104130698043
aF1398.8414042250231
aa(lp956
I469
aF-1536.1527646270226
aF1563.9818422104581
aa(lp957
I509
aF-1692.4116149112508
aF1725.0527598719045
aa(lp958
I552
aF-1844.492896119536
aF1877.8672452796136
aa(lp959
I590
aF-1950.8272914135789
aF1987.6380463331809
aa(lp960
I613
aF-1989.7401649631015
aF2025.2936877006225
aa(lp961
I660
aF-2159.1749760898961
aF2196.8476919370833
aa(lp962
I693
aF-2312.1198425075158
aF2353.577072252011
aa(lp963
I733
aF-2494.5420447112042
aF2542.2323058338529
aa(lp964
I757
aF-2547.5636592721712
aF2595.6667457870658
aa(lp965
I787
aF-2536.0888061353835
aF2583.6163740733828
aa(lp966
I810
aF-2573.4413995327814
aF2622.5445200521813
aa(lp967
I852
aF-2693.1258916587658
aF2746.1053292267225
aa(lp968
I875
aF-2793.727352155061
aF2844.7318260435813
aa(lp969
I910
aF-2907.2565302300154
aF2960.9097682251104
aa(lp970
I951
aF-3058.2712216194959
aF3117.9181912916556
aa(lp971
I983
aF-3150.9312234802574
aF3211.4461307191832
aa(lp972
I1017
aF-3282.2832712251598
aF3345.4204833083227
aa(lp973
I1041
aF-3355.1712662411296
aF3419.0951171250535
aa(lp974
I1069
aF-3398.8123080635287
aF3463.5032354579171
aa(lp975
I1115
aF-3603.6760511451671
aF3672.2248145947146
aa(lp976
I1161
aF-3671.9615413165575
aF3742.1157683846463
aa(lp977
I1202
aF-3707.8092405828479
aF3780.1890589517589
aa(lp978
I1241
aF-3919.9367034027032
aF3994.3358336259221
aa(lp979
I1286
aF-4095.4664037465341
aF4172.7679362101881
aa(lp980
I1325
aF-4266.8865747088003
aF4347.4745797049018
aa(lp981
I1370
aF-4427.0601495801366
aF4509.5321036925179
aa(lp982
I1419
aF-4604.8172918881373
aF4692.907749049783
aa(lp983
I1464
aF-4779.7030779832585
aF4871.6257273284673
aa(lp984
I1490
aF-4895.0064877368477
aF4988.2742080409216
aa(lp985
I1510
aF-4940.3181053044536
aF5033.1825622212045
aa(lp986
I1544
aF-5129.5111226714735
aF5229.158692970077
aa(lp987
I1572
aF-5253.3249941672684
aF5351.9766502953953
aa(lp988
I1599
aF-5336.8083652302603
aF5439.2527952849468
aa(lp989
I1649
aF-5479.9359835370333
aF5581.4779746698823
aa(lp990
I1692
aF-5638.9394864815658
aF5746.6929973271708
aa(lp991
I1736
aF-5790.9633543916379
aF5897.9383028764796
aa(lp992
I1770
aF-5898.9517926519629
aF6010.1128413529623
aa(lp993
I1819
aF-6079.0776772175614
aF6195.9759658858557
aa(lp994
I1864
aF-6271.8887609663579
aF6389.7875856618903
aa(lp995
I1900
aF-6428.009989931059
aF6551.3917027273592
aa(lp996
I1949
aF-6586.3881921484726
aF6712.4554784162292
aa(lp997
I1997
aF-6704.9631470081076
aF6831.8957137581092
aa(lp998
I2032
aF-6756.6978636389604
aF6884.1739605425691
aa(lp999
I2056
aF-6815.5522194734222
aF6944.7912358014164
aa(lp1000
I2093
aF-6990.3497178296866
aF7124.5889534990683
aa(lp1001
I2129
aF-7065.2931211329205
aF7200.2396228599073
aa(lp1002
I2175
aF-7284.418989844773
aF7423.1813668233672
aa(lp1003
I2212
aF-7326.6797772461296
aF7465.630159614554
aa(lp1004
I2253
aF-7485.1419609875202
aF7627.9666308052483
aa(lp1005
I2278
aF-7556.1756326450177
aF7702.1288078729212
aa(lp1006
I2323
aF-7737.2716127176473
aF7883.3024243512027
aa(lp1007
I2348
aF-7817.2861818102656
aF7967.7049662516301
aa(lp1008
I2370
aF-7911.9605826112929
aF8061.4430012633029
aa(lp1009
I2412
aF-8011.7360412047456
aF8161.6417531601455
aa(lp1010
I2444
aF-8121.1130812592774
aF8275.1283798784189
aa(lp1011
I2466
aF-8170.4734704699067
aF8324.3202954470762
aa(lp1012
I2513
aF-8352.408320573948
aF8511.9012239444401
aa(lp1013
I2537
aF-8454.7970761916949
aF8614.6165920533294
aa(lp1014
I2572
aF-8556.294545654293
aF8716.8819190191152
aa(lp1015
I2598
aF-8677.9190423414893
aF8839.5398082580959
aa(lp1016
I2619
aF-8808.21705976044
aF8975.3485759561172
aa(lp1017
I2662
aF-8962.0384063145375
aF9132.7300252755831
aa(lp1018
I2708
aF-9119.1264777295291
aF9292.9252511864361
aa(lp1019
I2737
aF-9234.0249356226814
aF9406.4531212109614
aa(lp1020
I2762
aF-9295.1492451515915
aF9470.4737219698036
aa(lp1021
I2786
aF-9340.3736239963255
aF9517.8907869307077
aa(lp1022
I2813
aF-9417.4434006418032
aF9595.5480511596597
aa(lp1023
I2841
aF-9506.6743592848125
aF9687.5977164259566
aa(lp1024
I2870
aF-9557.5448497280486
aF9741.2855276825067
aa(lp1025
I2909
aF-9707.6316884308162
aF9889.6547223447633
aa(lp1026
I2938
aF-9800.7266811697737
aF9987.0857625079225
aa(lp1027
I2959
aF-9919.8535592747303
aF10106.704199479789
aa(lp1028
I2995
aF-10097.601455948619
aF10288.623956741332
aa(lp1029
I3027
aF-10240.878985331985
aF10434.73533112557
aa(lp1030
I3061
aF-10425.526480821041
aF10621.627068440766
aa(lp1031
I3089
aF-10490.411739559626
aF10687.733704488655
aa(lp1032
I3138
aF-10647.168367427117
aF10849.002968274615
aa(lp1033
I3172
aF-10715.306825669262
aF10919.534891851696
aa(lp1034
I3192
aF-10813.510145790155
aF11017.515049578202
aa(lp1035
I3231
aF-10869.657266253356
aF11076.899954655777
aa(lp1036
I3265
aF-11006.594732420348
aF11217.144789810896
aa(lp1037
I3296
aF-11102.834368303791
aF11314.522764405343
aa(lp1038
I3325
aF-11171.298266959826
aF11383.442451496567
aa(lp1039
I3359
aF-11281.649580030842
aF11496.131036451039
aa(lp1040
I3388
aF-11364.36141808466
aF11580.116944937789
aa(lp1041
I3412
aF-11481.175942846732
aF11698.487996966303
aa(lp1042
I3452
aF-11646.467709274448
aF11866.932830523057
aa(lp1043
I3483
aF-11761.273853464314
aF11985.801535675359
aa(lp1044
I3514
aF-11898.394212454716
aF12124.89390763866
aa(lp1045
I3562
aF-12071.982018422974
aF12301.972072090621
aa(lp1046
I3602
aF-12244.821076142554
aF12477.161429850838
aa(lp1047
I3646
aF-12398.337886310652
aF12632.049630832915
aa(lp1048
I3686
aF-12557.439312499542
aF12793.526631688072
aa(lp1049
I3716
aF-12616.422433928292
aF12855.808768253335
aa(lp1050
I3742
aF-12713.460313573931
aF12953.965678988738
aa(lp1051
I3772
aF-12831.645229728711
aF13073.758208662462
aa(lp1052
I3798
aF-12913.442306515135
aF13158.87815648592
aa(lp1053
I3838
aF-13063.941717354186
aF13313.166103505191
aa(lp1054
I3872
aF-13205.555374751439
aF13457.338516344969
aa(lp1055
I3901
aF-13309.986231513238
aF13559.69421191157
aa(lp1056
I3922
aF-13324.758264069644
aF13578.736113720122
aa(lp1057
I3972
aF-13541.888203553701
aF13800.982935991513
aa(lp1058
I4000
aF-13642.668508098599
aF13900.296218531286
aa(lp1059
I4026
aF-13715.467484122484
aF13973.407557373959
aa(lp1060
I4072
aF-13927.888615912232
aF14193.380160189361
aaa(lp1061
(lp1062
I0
aF0
aF0
aa(lp1063
I40
aF13.316281464505892
aF-46.28426827638296
aa(lp1064
I81
aF-3.0139343411921011
aF48.316813270495615
aa(lp1065
I124
aF5.8410346035102236
aF-189.56540614739976
aa(lp1066
I156
aF131.87141106300876
aF-367.65363261636531
aa(lp1067
I183
aF333.61569602639463
aF-472.30956008927541
aa(lp1068
I206
aF334.88553055385762
aF-744.39292730401723
aa(lp1069
I250
aF469.04165757549538
aF-863.85954639841452
aa(lp1070
I277
aF766.1576163303472
aF-1155.0031834860465
aa(lp1071
I326
aF836.30726421557972
aF-1302.2811475014048
aa(lp1072
I347
aF1372.7379918649351
aF-1838.069718725475
aa(lp1073
I383
aF1560.34044138941
aF-2017.519723086433
aa(lp1074
I426
aF1888.1780820723013
aF-2446.0230748035501
aa(lp1075
I461
aF2334.7627568652288
aF-2855.5432563487025
aa(lp1076
I501
aF2774.6438730390255
aF-3351.4818426663414
aa(lp1077
I529
aF3368.3507509754913
aF-3923.7416735673232
aa(lp1078
I576
aF3572.4391941414974
aF-4236.9017342623065
aa(lp1079
I604
aF4224.0358706264069
aF-4846.0957157986122
aa(lp1080
I634
aF4550.4997799334114
aF-5389.0284576756894
aa(lp1081
I672
aF5010.1912309516902
aF-5700.2386935279392
aa(lp1082
I721
aF5495.4410967451504
aF-6291.2679940043809
aa(lp1083
I753
aF6325.6321973135464
aF-6958.7373334485274
aa(lp1084
I783
aF6749.5200303858564
aF-7483.6196904297904
aa(lp1085
I820
aF7176.9351433174652
aF-7976.0348170410489
aa(lp1086
I840
aF7765.6485145338738
aF-8474.4578701325372
aa(lp1087
I868
aF8093.9231505096068
aF-8800.1555963926494
aa(lp1088
I902
aF8454.5886870922241
aF-9297.3000964658331
aa(lp1089
I945
aF8814.4006772958637
aF-9640.2932533206313
aa(lp1090
I978
aF9512.3434045101512
aF-10207.114951350839
aa(lp1091
I1019
aF9984.7130647713766
aF-10636.890626152941
aa(lp1092
I1066
aF10471.907875727569
aF-11120.323730983067
aa(lp1093
I1114
aF11116.654654295993
aF-11696.741046001429
aa(lp1094
I1145
aF11667.498834884304
aF-12197.825107493198
aa(lp1095
I1187
aF11989.355539608092
aF-12514.649681337916
aa(lp1096
I1211
aF12438.064483858348
aF-12948.70373852889
aa(lp1097
I1260
aF12701.819586761267
aF-13214.048422967298
aa(lp1098
I1298
aF13083.617836153995
aF-13502.255884090124
aa(lp1099
I1319
aF13367.494799432403
aF-13785.824166367011
aa(lp1100
I1351
aF13433.155441802455
aF-13801.007428590488
aa(lp1101
I1389
aF13566.260890147418
aF-14032.997786688133
aa(lp1102
I1438
aF13803.400215835482
aF-14078.094412055678
aa(lp1103
I1468
aF13970.234370258786
aF-14201.594039498337
aa(lp1104
I1517
aF14053.477743513082
aF-14205.093728848467
aa(lp1105
I1564
aF14114.08566244151
aF-14134.529467530296
aa(lp1106
I1614
aF13974.196609546987
aF-14038.976658960768
aa(lp1107
I1661
aF13941.562058467851
aF-13910.558719215045
aa(lp1108
I1693
aF13725.255156628758
aF-13688.618179009669
aa(lp1109
I1736
aF13635.520812545628
aF-13562.530056686495
aa(lp1110
I1771
aF13466.535660160796
aF-13154.26546910973
aa(lp1111
I1807
aF13152.017970390878
aF-12876.794961449119
aa(lp1112
I1853
aF12888.157480799477
aF-12599.431479449266
aa(lp1113
I1894
aF12522.380167877871
aF-12106.895926629133
aa(lp1114
I1931
aF12011.484730978807
aF-11635.771861267353
aa(lp1115
I1960
aF11695.996795650948
aF-11175.978849828778
aa(lp1116
I1994
aF11391.834687822509
aF-10867.319570614076
aa(lp1117
I2043
aF10920.932035457106
aF-10422.240392670534
aa(lp1118
I2086
aF10288.597030145018
aF-9721.5186717983561
aa(lp1119
I2116
aF9837.9980580490137
aF-9175.9041133665869
aa(lp1120
I2164
aF9191.4883749165201
aF-8668.2269231322643
aa(lp1121
I2199
aF8689.956870911401
aF-7985.4651428706156
aa(lp1122
I2248
aF8086.5796784164422
aF-7503.2085471191212
aa(lp1123
I2294
aF7503.2923044964828
aF-6839.8021556698923
aa(lp1124
I2336
aF6751.5306359492079
aF-6166.2245490466639
aa(lp1125
I2375
aF6178.462231205187
aF-5492.3675154075017
aa(lp1126
I2409
aF5484.3717195154522
aF-4835.9502277921565
aa(lp1127
I2448
aF5110.3014749170725
aF-4538.4564819412262
aa(lp1128
I2481
aF4588.8394848058861
aF-3925.1369437859526
aa(lp1129
I2518
aF4063.3669256749631
aF-3526.6104179127647
aa(lp1130
I2546
aF3570.844949411829
aF-3013.3103166844576
aa(lp1131
I2569
aF3228.9611332393765
aF-2641.9825942450975
aa(lp1132
I2603
aF2850.8987999885317
aF-2430.1864523414592
aa(lp1133
I2642
aF2673.3626605438922
aF-2122.7983342439593
aa(lp1134
I2686
aF2193.9017246352105
aF-1685.1249904620736
aa(lp1135
I2733
aF1719.8594517465494
aF-1357.1199602054896
aa(lp1136
I2762
aF1294.5945439604895
aF-866.29470523491659
aa(lp1137
I2797
aF1058.697293362972
aF-765.79594708068885
aa(lp1138
I2847
aF740.98674574482015
aF-474.57328328681035
aa(lp1139
I2897
aF518.82556829901228
aF-282.5037398742752
aa(lp1140
I2932
aF316.95563145574476
aF-155.46959077433868
aa(lp1141
I2975
aF71.234841428765705
aF-23.578020355590063
aa(lp1142
I3007
aF91.818266360308144
aF-3.3286801107374728
aa(lp1143
I3028
aF-46.318511766343136
aF-2.4969340377371196
aa(lp1144
I3054
aF5.2646560706081793
aF-37.759079224826309
aa(lp1145
I3088
aF29.528483182374451
aF-129.74441373303313
aa(lp1146
I3118
aF62.112523163510318
aF-194.72095380551804
aa(lp1147
I3154
aF246.12008171237366
aF-193.88974022114184
aa(lp1148
I3176
aF190.3818627485114
aF-520.55875906418521
aa(lp1149
I3223
aF298.75030764166848
aF-601.27588178852523
aa(lp1150
I3268
aF627.67292475025249
aF-939.86454971458318
aa(lp1151
I3290
aF852.66383131621376
aF-1311.5647250096704
aa(lp1152
I3318
aF1113.7658156454088
aF-1512.1645114937323
aa(lp1153
I3345
aF1270.5728746425661
aF-1728.742431403464
aa(lp1154
I3365
aF1463.4863548078047
aF-2059.0624204579112
aa(lp1155
I3396
aF1661.970261174107
aF-2169.6544136585494
aa(lp1156
I3430
aF2049.0473041864248
aF-2524.4600307533678
aa(lp1157
I3479
aF2424.0560727436832
aF-2999.7487633097126
aa(lp1158
I3501
aF2970.4608523515135
aF-3594.4086865180034
aa(lp1159
I3544
aF3218.8909900163567
aF-3831.4570644148671
aa(lp1160
I3593
aF3816.4329528836788
aF-4388.2479497317254
aa(lp1161
I3638
aF4333.9213983984264
aF-5136.8345343390738
aa(lp1162
I3678
aF5060.0688377690758
aF-5747.856467362848
aa(lp1163
I3704
aF5559.8893955818976
aF-6361.8475266403148
aa(lp1164
I3747
aF6106.8796395487807
aF-6712.3784137412858
aa(lp1165
I3788
aF6592.4813423058686
aF-7356.0410540253351
aa(lp1166
I3815
aF7328.2529179417306
aF-8040.768285111465
aa(lp1167
I3838
aF7714.0519165982796
aF-8393.7063668682495
aa(lp1168
I3867
aF7906.3637436599129
aF-8753.7762241259861
aa(lp1169
I3915
aF8323.9554102681723
aF-9069.0919850233258
aa(lp1170
I3945
aF9156.8540013285656
aF-9782.4898088059435
aa(lp1171
I3989
aF9519.4882536436326
aF-10268.623091070791
aa(lp1172
I4019
aF10026.269862869873
aF-10754.282990057676
aa(lp1173
I4060
aF10445.173747220946
aF-11093.614507390152
aa(lp1174
I4091
aF10974.483510543436
aF-11661.412487521888
aa(lp1175
I4125
aF11259.307408049639
aF-12031.680693378637
aa(lp1176
I4147
aF11790.288864321643
aF-12353.943973794816
aa(lp1177
I4197
aF11972.002625513611
aF-12574.461274275885
aa(lp1178
I4228
aF12448.348590965998
aF-12993.25350205519
aa(lp1179
I4277
aF12729.52230448806
aF-13191.257264133566
aa(lp1180
I4297
aF13167.323242845761
aF-13529.587004435896
aa(lp1181
I4332
aF13339.001964226703
aF-13630.446031377
aa(lp1182
I4368
aF13568.264667729061
aF-13806.601963647401
aa(lp1183
I4393
aF13718.355603685586
aF-14045.306494054206
aa(lp1184
I4426
aF13822.382050584802
aF-14114.473505996577
aa(lp1185
I4471
aF13896.847150766624
aF-14189.358131368183
aa(lp1186
I4495
aF14119.128727767817
aF-14179.153391061847
aa(lp1187
I4515
aF14161.789835346643
aF-14231.666062934431
aa(lp1188
I4555
aF14102.590476094756
aF-14170.149364619207
aa(lp1189
I4589
aF14126.714349569431
aF-13993.148634495818
aa(lp1190
I4633
aF14033.801240121193
aF-13971.136285310395
aa(lp1191
I4669
aF13873.863188155567
aF-13778.951075993555
aa(lp1192
I4695
aF13706.650356666973
aF-13602.791740418743
aa(lp1193
I4732
aF13656.489008740264
aF-13343.715193087277
aa(lp1194
I4754
aF13409.299421350728
aF-13184.853414602971
aa(lp1195
I4785
aF13322.308232611478
aF-13072.712169857579
aa(lp1196
I4819
aF13192.149476993683
aF-12828.551936778884
aa(lp1197
I4852
aF12839.111586273215
aF-12458.617720950517
aa(lp1198
I4880
aF12527.832758953055
aF-12283.407701790527
aa(lp1199
I4900
aF12203.524413635882
aF-11863.763811426888
aa(lp1200
I4925
aF11990.188753806562
aF-11441.550737141079
aaa(lp1201
(lp1202
I0
aF0
aF-0
aa(lp1203
I45
aF22.427831987936969
aF-10.71069435513304
aa(lp1204
I93
aF-36.623330327460501
aF53.54922095849119
aa(lp1205
I142
aF-179.6788065611357
aF121.6659667481279
aa(lp1206
I174
aF-448.92767416635746
aF41.780103505630251
aa(lp1207
I201
aF-654.63472382187092
aF121.28302369376429
aa(lp1208
I231
aF-880.9580256020638
aF21.151839198485646
aa(lp1209
I268
aF-1171.8243908513241
aF49.759678972157843
aa(lp1210
I289
aF-1556.0725687518357
aF43.79042623346956
aa(lp1211
I309
aF-1758.1472284547137
aF52.344621653548359
aa(lp1212
I345
aF-1989.9498226171474
aF67.71851057056665
aa(lp1213
I381
aF-2537.6122499472403
aF20.851785862761119
aa(lp1214
I430
aF-3107.2307297211128
aF-103.25055116576601
aa(lp1215
I470
aF-3748.0705170128094
aF-151.65828617791635
aa(lp1216
I510
aF-4587.237743321999
aF-136.43190996701071
aa(lp1217
I558
aF-5243.8058631498889
aF-181.92972591259513
aa(lp1218
I607
aF-6185.056287668006
aF-266.87729101737875
aa(lp1219
I655
aF-7070.8478528036576
aF-410.41009837843706
aa(lp1220
I703
aF-8109.9941000994459
aF-500.31576831684521
aa(lp1221
I733
aF-9044.6191952694226
aF-533.73904786485957
aa(lp1222
I755
aF-9622.5848598049161
aF-497.21924588158242
aa(lp1223
I802
aF-10215.071733087481
aF-714.24940691371603
aa(lp1224
I831
aF-11122.125076700215
aF-829.93003812187135
aa(lp1225
I877
aF-11692.583092200812
aF-759.77028838855449
aa(lp1226
I911
aF-12664.690302596746
aF-952.92067384510403
aa(lp1227
I961
aF-13262.179274780017
aF-1114.9761466090126
aa(lp1228
I1006
aF-14248.310936376261
aF-1289.6377298217139
aa(lp1229
I1039
aF-15062.223542917864
aF-1335.4209926521353
aa(lp1230
I1083
aF-15665.526296744367
aF-1554.0421855761144
aa(lp1231
I1122
aF-16368.13329517254
aF-1616.3461105199115
aa(lp1232
I1146
aF-16961.042407936333
aF-1657.2622715466252
aa(lp1233
I1192
aF-17291.982490415474
aF-1611.8715293249247
aa(lp1234
I1228
aF-17987.446654845688
aF-1781.0485421623575
aa(lp1235
I1253
aF-18376.40123790345
aF-1820.7227430176949
aa(lp1236
I1291
aF-18493.760480181096
aF-1927.183718018523
aa(lp1237
I1331
aF-18918.716183862023
aF-2043.5646436850509
aa(lp1238
I1359
aF-19240.928112020116
aF-2013.2300350618982
aa(lp1239
I1403
aF-19417.880395734606
aF-2113.5921356573335
aa(lp1240
I1435
aF-19694.611612178502
aF-2289.2386412920387
aa(lp1241
I1458
aF-19742.215769200331
aF-2243.7047497759845
aa(lp1242
I1488
aF-20024.562091318723
aF-2321.8987376721379
aa(lp1243
I1513
aF-19793.145536351916
aF-2297.7627927894155
aa(lp1244
I1545
aF-19803.196813059796
aF-2432.8686922042393
aa(lp1245
I1588
aF-19808.040198519757
aF-2442.4437878909889
aa(lp1246
I1628
aF-19618.315371940185
aF-2413.0586955818135
aa(lp1247
I1657
aF-19494.553408516695
aF-2467.0700329042256
aa(lp1248
I1681
aF-19320.74803004647
aF-2407.3298997476772
aa(lp1249
I1724
aF-19121.66293454299
aF-2498.4495029125637
aa(lp1250
I1767
aF-18837.493536696733
aF-2448.3739387303604
aa(lp1251
I1802
aF-18317.857926751429
aF-2456.761723492823
aa(lp1252
I1852
aF-17871.763310939899
aF-2505.959592605222
aa(lp1253
I1894
aF-17187.429402276932
aF-2466.3743881529176
aa(lp1254
I1926
aF-16548.069212600385
aF-2379.6720006232699
aa(lp1255
I1976
aF-16027.85721747057
aF-2376.2352204090716
aa(lp1256
I2004
aF-15324.089765832015
aF-2293.9662139802517
aa(lp1257
I2044
aF-14633.083363082911
aF-2226.2139399926186
aa(lp1258
I2087
aF-14054.469310936182
aF-2115.6404762684624
aa(lp1259
I2134
aF-13173.862548308234
aF-1962.1354722899766
aa(lp1260
I2166
aF-12262.012590053955
aF-1848.802937769738
aa(lp1261
I2198
aF-11621.583713309996
aF-1835.1879581727337
aa(lp1262
I2243
aF-10953.666128413357
aF-1796.9357010032188
aa(lp1263
I2274
aF-9911.2075890391807
aF-1712.9209330099525
aa(lp1264
I2308
aF-9441.2170975471781
aF-1589.3028786324894
aa(lp1265
I2357
aF-8721.2952615281411
aF-1507.8500574868831
aa(lp1266
I2398
aF-7678.0297164828817
aF-1476.2033638404828
aa(lp1267
I2439
aF-6793.5437300838448
aF-1211.0881637204941
aa(lp1268
I2462
aF-6059.6958503242813
aF-1152.2207615884561
aa(lp1269
I2495
aF-5619.3091182371336
aF-1249.0760216210033
aa(lp1270
I2522
aF-5027.4855443114147
aF-998.24527752297649
aa(lp1271
I2549
aF-4512.4204143238976
aF-861.52835311411536
aa(lp1272
I2597
aF-3985.2672589839485
aF-889.26359285888532
aa(lp1273
I2628
aF-3288.0124666157649
aF-735.93279032162127
aa(lp1274
I2656
aF-2848.4453066253054
aF-594.27585144137493
aa(lp1275
I2693
aF-2459.6793092720982
aF-583.32110789029741
aa(lp1276
I2743
aF-1865.3234220871543
aF-587.48676378317282
aa(lp1277
I2774
aF-1352.0808226564375
aF-370.67455885786012
aa(lp1278
I2803
aF-1044.0991115460092
aF-356.79966336698203
aa(lp1279
I2851
aF-823.20923030689585
aF-378.81029769054703
aa(lp1280
I2877
aF-454.2601455029299
aF-272.70153033998673
aa(lp1281
I2918
aF-306.42062180766533
aF-114.99795873451083
aa(lp1282
I2965
aF-24.853321714787995
aF-83.134046291900887
aa(lp1283
I3012
aF-52.37712138060111
aF-0.5369666559569044
aa(lp1284
I3039
aF-16.998672065579616
aF-0.38816583023773221
aa(lp1285
I3083
aF-21.542991493008877
aF11.184654772105223
aa(lp1286
I3123
aF-186.17767256933857
aF61.996850920804583
aa(lp1287
I3150
aF-385.55722450883439
aF89.093698172519822
aa(lp1288
I3171
aF-493.32306741901129
aF147.05019494921606
aa(lp1289
I3219
aF-554.43361804039432
aF150.25014740476792
aa(lp1290
I3242
aF-1059.6367758372485
aF97.26060785905284
aa(lp1291
I3276
aF-1290.018042889232
aF82.713379230920793
aa(lp1292
I3299
aF-1732.2161936405714
aF110.78216268800296
aa(lp1293
I3320
aF-1906.9809756088566
aF39.791282105061498
aa(lp1294
I3343
aF-2261.3211339656473
aF3.3584319954152306
aa(lp1295
I3391
aF-2465.1608223847134
aF-79.155045948895975
aa(lp1296
I3431
aF-3186.3816083783267
aF-78.311463862618098
aa(lp1297
I3459
aF-3822.889651977302
aF-5.5704297015654447
aa(lp1298
I3490
aF-4315.0579354143829
aF-180.78768766064161
aa(lp1299
I3533
aF-4800.9274524693474
aF-181.421599180832
aa(lp1300
I3568
aF-5590.2826465410317
aF-211.30095386331084
aa(lp1301
I3596
aF-6326.6938406140971
aF-307.7167350327253
aa(lp1302
I3637
aF-6836.9017650079886
aF-385.97567565657459
aa(lp1303
I3674
aF-7610.6447800045962
aF-430.40752956564228
aa(lp1304
I3698
aF-8437.6373015958943
aF-548.1039496882878
aa(lp1305
I3734
aF-9014.4306410480513
aF-556.62269226548528
aa(lp1306
I3783
aF-9624.9270436762399
aF-638.17510522944031
aa(lp1307
I3805
aF-10670.490859537698
aF-778.19378361402823
aa(lp1308
I3834
aF-11134.551344543199
aF-695.40749701683308
aa(lp1309
I3881
aF-11821.481596355437
aF-962.65121178626919
aa(lp1310
I3911
aF-12740.655124781595
aF-1026.7881948030051
aa(lp1311
I3938
aF-13306.680472212014
aF-1058.3333305780634
aa(lp1312
I3981
aF-13769.968717724016
aF-1177.6674471456924
aa(lp1313
I4002
aF-14558.001311436876
aF-1284.7729561293067
aa(lp1314
I4048
aF-15032.233050013274
aF-1218.9429171356865
aa(lp1315
I4082
aF-15730.941211602667
aF-1530.332877438658
aa(lp1316
I4114
aF-16295.579032891426
aF-1622.8417533093248
aa(lp1317
I4159
aF-16820.717662883959
aF-1599.9723428101127
aa(lp1318
I4198
aF-17460.565221497141
aF-1611.7379950445265
aa(lp1319
I4236
aF-17971.733515334341
aF-1816.9807503853986
aa(lp1320
I4256
aF-18435.651622835805
aF-1938.756563148035
aa(lp1321
I4301
aF-18626.202058505834
aF-1945.5943789723597
aa(lp1322
I4329
aF-19056.615486837509
aF-2061.2847191309438
aaa(lp1323
(lp1324
I0
aF0
aF0
aa(lp1325
I30
aF-41.189896064206131
aF42.412452627890843
aa(lp1326
I79
aF-13.885620042534812
aF43.735103402527798
aa(lp1327
I121
aF192.12459830934148
aF-49.66609024583466
aa(lp1328
I147
aF341.53871587553925
aF-1.5766473302134756
aa(lp1329
I183
aF525.00666262323944
aF-21.243435265627312
aa(lp1330
I213
aF807.66275175927058
aF-21.718826059762677
aa(lp1331
I237
aF1044.7500906800053
aF58.051496182960165
aa(lp1332
I279
aF1254.6100092067491
aF186.12680062469886
aa(lp1333
I310
aF1701.4144692243713
aF218.52776320394264
aa(lp1334
I345
aF2032.9895709857292
aF327.98174768361963
aa(lp1335
I374
aF2450.1181823206525
aF390.65012755049349
aa(lp1336
I407
aF2882.0474161921666
aF523.2130703906588
aa(lp1337
I442
aF3351.2374843951934
aF594.13175486028206
aa(lp1338
I469
aF3925.5075243927818
aF876.96263049372612
aa(lp1339
I515
aF4365.252458892729
aF857.76285137130026
aa(lp1340
I548
aF5071.7412707820113
aF1121.9357827885372
aa(lp1341
I578
aF5849.2435170377812
aF1251.989722803411
aa(lp1342
I609
aF6390.6171717576672
aF1426.7707713640452
aa(lp1343
I654
aF6915.5322026170907
aF1643.629531824228
aa(lp1344
I677
aF7800.9065238169533
aF1895.4788562560086
aa(lp1345
I716
aF8293.7203023168022
aF1932.3272504653271
aa(lp1346
I748
aF9072.3767777934863
aF2234.9045194785995
aa(lp1347
I779
aF9748.6386352522641
aF2526.277526600632
aa(lp1348
I799
aF10314.999380449955
aF2634.9946529461799
aa(lp1349
I841
aF10709.803690586779
aF2758.0389659263383
aa(lp1350
I868
aF11527.360794581082
aF3113.7302706274309
aa(lp1351
I904
aF12145.241028987455
aF3176.4014603153992
aa(lp1352
I943
aF12645.122681225208
aF3374.3551128823342
aa(lp1353
I987
aF13476.248702227271
aF3683.9734396937647
aa(lp1354
I1010
aF14303.145741108343
aF3919.0991864013395
aa(lp1355
I1049
aF14709.091518473411
aF4030.2654726106884
aa(lp1356
I1097
aF15225.813322983246
aF4213.9486442530351
aa(lp1357
I1122
aF15945.061684270389
aF4605.1782106486316
aa(lp1358
I1166
aF16306.440246783784
aF4574.0644787493256
aa(lp1359
I1204
aF16969.471857535293
aF4873.6584754193673
aa(lp1360
I1253
aF17447.002488464739
aF4977.5274709249716
aa(lp1361
I1292
aF17977.665082876574
aF5231.294781439794
aa(lp1362
I1316
aF18319.649015650171
aF5351.1132756860588
aa(lp1363
I1362
aF18484.527898367978
aF5343.5398525574847
aa(lp1364
I1383
aF18794.208356519794
aF5562.8111371174582
aa(lp1365
I1412
aF18856.537862437133
aF5690.0646151807496
aa(lp1366
I1450
aF19037.387509736669
aF5711.5746998688901
aa(lp1367
I1489
aF19148.326047024242
aF5760.1034891455583
aa(lp1368
I1522
aF19178.739921511617
aF5718.6824985009789
aa(lp1369
I1554
aF19140.160600753195
aF5875.3120555674022
aa(lp1370
I1594
aF19078.864126887689
aF5800.1816365769309
aa(lp1371
I1624
aF18870.383728347813
aF5868.4614381427218
aa(lp1372
I1661
aF18755.467276081003
aF5846.8116408143815
aa(lp1373
I1700
aF18522.181131277935
aF5766.5474809380157
aa(lp1374
I1726
aF18232.162209326536
aF5785.1538657005158
aa(lp1375
I1758
aF17990.855491868784
aF5747.719832280548
aa(lp1376
I1797
aF17741.857481113439
aF5518.4858095309155
aa(lp1377
I1847
aF17237.215274317441
aF5625.148005681207
aa(lp1378
I1878
aF16564.420645469309
aF5454.8983845963921
aa(lp1379
I1928
aF16183.275109152699
aF5198.0917009270361
aa(lp1380
I1954
aF15423.65534044967
aF5068.4043158884169
aa(lp1381
I1996
aF15030.464911736748
aF5050.1571822921524
aa(lp1382
I2028
aF14356.9677696534
aF4808.6398321061379
aa(lp1383
I2074
aF13694.122016994088
aF4616.9245842633518
aa(lp1384
I2096
aF12968.416399026584
aF4334.7079827303842
aa(lp1385
I2134
aF12462.573023461369
aF4161.8174039633059
aa(lp1386
I2158
aF11732.015783778497
aF4066.4473806270826
aa(lp1387
I2186
aF11261.497801296216
aF3922.0997008389277
aa(lp1388
I2217
aF10723.675348244004
aF3788.0303621294538
aa(lp1389
I2237
aF10154.348585176222
aF3639.0408721058348
aa(lp1390
I2282
aF9673.8174798299224
aF3504.3018100408426
aa(lp1391
I2305
aF8841.833656830222
aF3196.0750520264032
aa(lp1392
I2342
aF8302.0936045525268
aF3013.7798119522258
aa(lp1393
I2371
aF7538.4680262538168
aF2860.49371427904
aa(lp1394
I2416
aF6976.9679987286299
aF2605.8449985902876
aa(lp1395
I2456
aF6130.7186927405273
aF2310.5144427878809
aa(lp1396
I2500
aF5451.1289098021971
aF2044.9698884370632
aa(lp1397
I2521
aF4733.8335455182387
aF1857.752918463787
aa(lp1398
I2560
aF4263.3377718565844
aF1760.85805812083
aa(lp1399
I2583
aF3651.3164664100323
aF1565.3016451219248
aa(lp1400
I2603
aF3332.30049033157
aF1401.2062328184393
aa(lp1401
I2630
aF2932.8415484928832
aF1226.2100912292733
aa(lp1402
I2653
aF2692.4518362247941
aF1156.9557631614498
aa(lp1403
I2673
aF2223.0673761192802
aF1001.0487133488443
aa(lp1404
I2702
aF2075.1594958185906
aF993.61629842243792
aa(lp1405
I2730
aF1746.2126508438919
aF804.52072493342405
aa(lp1406
I2778
aF1504.8563451398093
aF652.13724253448595
aa(lp1407
I2813
aF960.92683995822824
aF507.2450555882462
aa(lp1408
I2846
aF729.79980152446137
aF435.58674299990753
aa(lp1409
I2876
aF403.6313240428629
aF303.10017269976044
aa(lp1410
I2921
aF275.07336267708411
aF248.02926667332861
aa(lp1411
I2942
aF85.341712770603209
aF118.39517624198075
aa(lp1412
I2966
aF117.28272018304693
aF164.94267550787703
aa(lp1413
I2991
aF-10.338006277565333
aF74.837143086208897
aa(lp1414
I3027
aF-19.629271225008065
aF-10.468010470091475
aa(lp1415
I3057
aF79.827313928955121
aF-1.194382414018115
aa(lp1416
I3088
aF73.29773769481443
aF-29.729191785342607
aa(lp1417
I3128
aF82.427052553328238
aF-30.62176370009507
aa(lp1418
I3171
aF382.61041935895906
aF-21.18033313160403
aa(lp1419
I3212
aF535.13960472306849
aF55.015167358835541
aa(lp1420
I3250
aF1022.0453209485214
aF56.801909215428168
aa(lp1421
I3277
aF1354.4162302097207
aF142.7341154811979
aa(lp1422
I3315
aF1665.0174156391104
aF283.84796511972536
aa(lp1423
I3345
aF2113.0587970238403
aF337.14903435593294
aa(lp1424
I3378
aF2423.1524939709543
aF366.13138503629278
aa(lp1425
I3411
aF2944.534961596346
aF546.08861863993684
aa(lp1426
I3437
aF3474.2188963475228
aF604.75953615136905
aa(lp1427
I3473
aF3812.7848313182808
aF727.7993395255279
aa(lp1428
I3517
aF4407.0358496210338
aF895.94860432699943
aa(lp1429
I3561
aF5197.1428856526909
aF1086.2628710758904
aa(lp1430
I3582
aF5945.7082466224128
aF1414.2659545114702
aa(lp1431
I3608
aF6321.0153560428171
aF1459.8685689794504
aa(lp1432
I3638
aF6998.1350234622068
aF1538.117769248475
aa(lp1433
I3677
aF7457.1014277336681
aF1796.3772764059738
aa(lp1434
I3701
aF8320.2777084424633
aF1940.6978727858054
aa(lp1435
I3747
aF8736.5565818719315
aF2150.4444530306805
aaa(lp1436
(lp1437
I0
aF-0
aF0
aa(lp1438
I37
aF-61.728355099816412
aF-83.776521552324823
aa(lp1439
I66
aF51.09357589272328
aF12.378453708641656
aa(lp1440
I113
aF9.3889976889903419
aF64.9427385811058
aa(lp1441
I159
aF148.7871376056915
aF332.54350294813906
aa(lp1442
I182
aF113.94544742098975
aF558.74260556317063
aa(lp1443
I220
aF156.10456079255823
aF720.4431776697752
aa(lp1444
I260
aF175.01519119070048
aF1087.2053817227043
aa(lp1445
I283
aF225.41899928680834
aF1489.6801046016853
aa(lp1446
I315
aF275.48297130899323
aF1715.0815092434113
aa(lp1447
I351
aF257.03758797408494
aF2170.1494602291632
aa(lp1448
I378
aF329.77861276065829
aF2522.9066032361075
aa(lp1449
I415
aF325.10150893460025
aF3021.8671190135474
aa(lp1450
I454
aF341.17964091545934
aF3562.2818319034127
aa(lp1451
I482
aF253.14862003438139
aF4218.4217161725619
aa(lp1452
I525
aF296.91463209203147
aF4607.9956045307345
aa(lp1453
I560
aF350.93054890190069
aF5387.7672338595348
aa(lp1454
I604
aF304.4832806317861
aF6133.6424951508825
aa(lp1455
I632
aF291.9923247280102
aF7038.0765603886111
aa(lp1456
I657
aF232.88714902092977
aF7658.3684253964484
aa(lp1457
I703
aF400.80447064769305
aF8065.2391830607921
aa(lp1458
I727
aF360.69094486971892
aF9085.5483871853212
aa(lp1459
I772
aF235.89651767964494
aF9511.649480805223
aa(lp1460
I805
aF244.88234935142165
aF10378.304441547329
aa(lp1461
I835
aF219.55620521776237
aF11198.782028442014
aa(lp1462
I882
aF104.12667684363782
aF11748.503784199158
aa(lp1463
I910
aF238.12913248462951
aF12804.392169719664
aa(lp1464
I939
aF245.369437572918
aF13345.116012128883
aa(lp1465
I979
aF15.643137929680051
aF13823.878208015009
aa(lp1466
I999
aF152.71367912108508
aF14509.78308030038
aa(lp1467
I1046
aF8.0499691727313234
aF14979.470218073067
aa(lp1468
I1087
aF29.145738432201995
aF15782.413680830512
aa(lp1469
I1124
aF-15.26708857391219
aF16523.71047676255
aa(lp1470
I1159
aF-10.262342875686841
aF17036.307539895141
aa(lp1471
I1207
aF-89.563215416761352
aF17595.289549804722
aa(lp1472
I1255
aF-98.722220158968071
aF18213.536429383916
aa(lp1473
I1279
aF-214.69056195272961
aF18720.671919952292
aa(lp1474
I1314
aF-144.22814049173132
aF19009.302379110806
aa(lp1475
I1344
aF-210.92814878569095
aF19166.522593566344
aa(lp1476
I1364
aF-330.57424474842605
aF19477.571136285816
aa(lp1477
I1388
aF-337.62780278338317
aF19622.627774853569
aa(lp1478
I1420
aF-319.4518752502749
aF19693.48609011581
aa(lp1479
I1442
aF-430.64169314730901
aF19931.743269879131
aa(lp1480
I1492
aF-385.62798348011256
aF19845.626620110961
aa(lp1481
I1529
aF-472.28485030452208
aF19877.296210228134
aa(lp1482
I1575
aF-482.59990023260241
aF19943.537357538691
aa(lp1483
I1613
aF-516.08341817579196
aF19876.461815764367
aa(lp1484
I1653
aF-526.78573240947514
aF19720.962393013233
aa(lp1485
I1678
aF-563.61291415748997
aF19403.089120363395
aa(lp1486
I1726
aF-617.19749246428228
aF19308.966375002088
aa(lp1487
I1761
aF-677.29228235866469
aF18890.132359422125
aa(lp1488
I1788
aF-616.37865782629899
aF18501.65037059016
aa(lp1489
I1810
aF-697.86476163252439
aF18215.068215628282
aa(lp1490
I1846
aF-666.44920218484754
aF17935.204282823594
aa(lp1491
I1891
aF-707.57752337816351
aF17431.601007627629
aa(lp1492
I1917
aF-710.41958130289095
aF16799.685624125414
aa(lp1493
I1951
aF-732.46595663683684
aF16453.041365108689
aa(lp1494
I1979
aF-759.78575240784483
aF15846.75956279039
aa(lp1495
I2025
aF-741.34304778634078
aF15461.998532358679
aa(lp1496
I2068
aF-752.78390990215053
aF14587.699310608157
aa(lp1497
I2112
aF-667.07362637589881
aF13804.748667489388
aa(lp1498
I2132
aF-799.7318454456223
aF12809.166299916085
aa(lp1499
I2178
aF-768.27618025010599
aF12467.877806646949
aa(lp1500
I2204
aF-677.89762591825036
aF11315.932453256843
aa(lp1501
I2231
aF-733.6510401465473
aF10925.061641992601
aa(lp1502
I2264
aF-745.7456826788864
aF10407.459072856464
aa(lp1503
I2300
aF-686.79917097597217
aF9710.8015834542166
aa(lp1504
I2341
aF-746.91062460592366
aF8840.0387386042912
aa(lp1505
I2389
aF-660.62715057990772
aF8066.0955191683934
aa(lp1506
I2410
aF-659.74172573338922
aF7028.3251717467192
aa(lp1507
I2452
aF-711.60983445769568
aF6709.6479617106443
aa(lp1508
I2476
aF-627.12445124752799
aF5847.6647131572736
aa(lp1509
I2510
aF-529.19476845331087
aF5409.8799402367622
aa(lp1510
I2542
aF-599.09213803836542
aF4867.3944615996143
aa(lp1511
I2577
aF-478.65433142149288
aF4168.4228914146861
aa(lp1512
I2627
aF-390.1918112443899
aF3692.45083758078
aa(lp1513
I2666
aF-313.75470443418772
aF2969.6452351979724
aa(lp1514
I2712
aF-352.68825376306773
aF2335.1199786872617
aa(lp1515
I2751
aF-308.02710801375588
aF1752.3043632066046
aa(lp1516
I2783
aF-295.50490292257052
aF1353.1563747909991
aa(lp1517
I2830
aF-251.52736990919752
aF1030.9994728397153
aa(lp1518
I2876
aF-75.472770977395982
aF599.20955771206434
aa(lp1519
I2901
aF-70.710916608034239
aF334.52410642808275
aa(lp1520
I2947
aF-142.77828667863793
aF107.04258170142772
aa(lp1521
I2997
aF-11.632463157394827
aF135.48043069875442
aa(lp1522
I3039
aF-72.876520024828622
aF-36.044260988546505
aa(lp1523
I3062
aF66.398114594854974
aF-24.255037122424138
aa(lp1524
I3090
aF148.33100599053179
aF132.93985745617618
aa(lp1525
I3122
aF94.63582157066466
aF218.85909560732438
aa(lp1526
I3169
aF33.564970978477426
aF285.94018539270394
aa(lp1527
I3211
aF210.09962088999828
aF614.80996666612998
aa(lp1528
I3259
aF81.31487116791763
aF930.67807896838406
aa(lp1529
I3302
aF254.23405912584036
aF1402.8094110288735
aa(lp1530
I3329
aF228.81326269655528
aF1959.9559017728632
aa(lp1531
I3378
aF204.75645727982345
aF2303.5133025845116
aa(lp1532
I3398
aF318.50583223032567
aF3007.1317504150766
aa(lp1533
I3445
aF338.40235945186095
aF3307.8052296460373
aa(lp1534
I3474
aF237.94311139868501
aF4003.9358935373675
aa(lp1535
I3514
aF246.29098434563915
aF4579.1965035652565
aa(lp1536
I3561
aF360.06888090378459
aF5257.5052672521797
aa(lp1537
I3597
aF366.55781483458401
aF6168.4616831057201
aa(lp1538
I3641
aF312.81394650725952
aF6769.9722544407077
aa(lp1539
I3671
aF313.14165056126416
aF7736.9961857328626
aa(lp1540
I3703
aF379.28015690785486
aF8415.5205502519457
aa(lp1541
I3743
aF371.00794202701104
aF9018.9298151670355
aa(lp1542
I3772
aF300.92675919271073
aF9884.2761755144729
aa(lp1543
I3792
aF252.54506732233244
aF10523.224929915958
aa(lp1544
I3813
aF189.70743035099926
aF10857.232153919811
aa(lp1545
I3862
aF175.36827726108748
aF11360.761792354737
aa(lp1546
I3900
aF195.72265452493593
aF12343.087001893799
aa(lp1547
I3948
aF214.4375513347855
aF13037.594734688575
aa(lp1548
I3998
aF99.95840091448116
aF14032.88388299088
aa(lp1549
I4038
aF74.403128293880798
aF14919.139706611386
aa(lp1550
I4072
aF61.740358636918472
aF15636.423874346407
aa(lp1551
I4112
aF-24.223627302241198
aF16186.652047640428
aa(lp1552
I4135
aF51.059726866283427
aF16759.087820991685
aaa(lp1553
(lp1554
I0
aF0
aF0
aa(lp1555
I42
aF30.824618734921351
aF18.098662306293768
aa(lp1556
I87
aF-67.997336496139241
aF-27.857953106674934
aa(lp1557
I127
aF189.72471460397071
aF-92.289752433214744
aa(lp1558
I158
aF297.23057119855883
aF-211.88977021106351
aa(lp1559
I182
aF426.73604410300339
aF-137.73514816037408
aa(lp1560
I207
aF746.90866124516549
aF-307.24094345511503
aa(lp1561
I238
aF928.71277377909018
aF-388.05624919005538
aa(lp1562
I285
aF1137.0605175744079
aF-452.90535993375136
aa(lp1563
I327
aF1581.9082249074709
aF-655.48507798641572
aa(lp1564
I365
aF2059.7578072584847
aF-656.81679955164122
aa(lp1565
I386
aF2601.3338142216517
aF-811.63834928428946
aa(lp1566
I409
aF2930.8018884049752
aF-920.27362034728651
aa(lp1567
I458
aF3346.3562467263559
aF-945.72065424494872
aa(lp1568
I478
aF4071.1656567224181
aF-1041.3501276279553
aa(lp1569
I522
aF4493.8099888226698
aF-1295.3332970573986
aa(lp1570
I560
aF5190.1045653753254
aF-1389.5599248058898
aa(lp1571
I606
aF6003.4639796178317
aF-1506.8970817186437
aa(lp1572
I644
aF6856.4962115872067
aF-1622.9121540547299
aa(lp1573
I685
aF7604.1079068580002
aF-1749.3457223492487
aa(lp1574
I726
aF8419.1475874795651
aF-1979.3661212459292
aa(lp1575
I769
aF9311.6532365691801
aF-2029.723204579748
aa(lp1576
I790
aF10204.866420970504
aF-2265.465133412722
aa(lp1577
I838
aF10610.833917375341
aF-2365.2541344831807
aa(lp1578
I874
aF11574.343743731319
aF-2444.8533021732464
aa(lp1579
I903
aF12344.428985643624
aF-2569.7677314361208
aa(lp1580
I946
aF12842.765725063631
aF-2840.5702330586396
aa(lp1581
I986
aF13691.648643600865
aF-2871.0421495396149
aa(lp1582
I1027
aF14479.625252623642
aF-2948.4337550002465
aa(lp1583
I1049
aF15149.484433441974
aF-3055.6779079117618
aa(lp1584
I1078
aF15505.745034300895
aF-3127.4611668071607
aa(lp1585
I1112
aF16050.492905730162
aF-3257.1933620450673
aa(lp1586
I1140
aF16630.117581723549
aF-3295.2541776230782
aa(lp1587
I1161
aF17007.918801912077
aF-3256.9610218710823
aa(lp1588
I1197
aF17295.463264135524
aF-3410.4004782306843
aa(lp1589
I1228
aF17675.594952467782
aF-3357.6452605615314
aa(lp1590
I1255
aF18090.533321014653
aF-3396.162751584533
aa(lp1591
I1301
aF18359.072778741349
aF-3363.7558210114216
aa(lp1592
I1335
aF18780.351614657899
aF-3398.6336190055531
aa(lp1593
I1384
aF19145.243842025284
aF-3513.7790738592585
aa(lp1594
I1414
aF19426.98647313907
aF-3513.9028296712063
aa(lp1595
I1442
aF19525.295308901019
aF-3502.1459120259356
aa(lp1596
I1492
aF19646.515844445759
aF-3372.4908000907708
aa(lp1597
I1537
aF19658.486583689242
aF-3415.1351535092535
aa(lp1598
I1561
aF19734.142108120348
aF-3306.2248803787106
aa(lp1599
I1586
aF19645.633675373756
aF-3382.2092358659052
aa(lp1600
I1613
aF19563.162344005221
aF-3253.9332111870958
aa(lp1601
I1650
aF19394.965506388227
aF-3246.6538203370774
aa(lp1602
I1686
aF19207.767896741731
aF-3214.9098390175909
aa(lp1603
I1714
aF18991.118336268446
aF-3109.514514635734
aa(lp1604
I1746
aF18746.49357421371
aF-2993.0319799972735
aa(lp1605
I1785
aF18453.82372676353
aF-3016.6429050723846
aa(lp1606
I1832
aF17971.731294694404
aF-2875.0449882659991
aa(lp1607
I1881
aF17462.858957270237
aF-2692.9084867702491
aa(lp1608
I1907
aF16819.33327249279
aF-2472.462560806825
aa(lp1609
I1943
aF16465.956831417196
aF-2470.6607722469726
aa(lp1610
I1980
aF15839.795666311258
aF-2306.8295148055331
aa(lp1611
I2002
aF15191.696134145835
aF-2042.0879502736054
aa(lp1612
I2028
aF14817.029188475355
aF-2101.8485559649566
aa(lp1613
I2055
aF14439.950781062522
aF-2013.110402677341
aa(lp1614
I2098
aF13809.048976326263
aF-1826.7860033050047
aa(lp1615
I2127
aF13021.909022152486
aF-1723.6310726316094
aa(lp1616
I2168
aF12459.516637753368
aF-1669.6399576647677
aa(lp1617
I2189
aF11613.835802000529
aF-1475.7678348839931
aa(lp1618
I2212
aF11142.675710747533
aF-1485.6918551549152
aa(lp1619
I2249
aF10674.601346501539
aF-1310.5187093395789
aa(lp1620
I2292
aF9967.3262511570119
aF-1250.4904507939943
aa(lp1621
I2331
aF9070.7504532398816
aF-1015.3413141671465
aa(lp1622
I2374
aF8209.78639274958
aF-837.52689205310367
aa(lp1623
I2412
aF7316.47758050005
aF-758.14170919733158
aa(lp1624
I2456
aF6703.2603219842449
aF-663.65343157593156
aa(lp1625
I2484
aF5776.0037665967293
aF-500.89404753372349
aa(lp1626
I2528
aF5228.283521721356
aF-481.79848614696544
aa(lp1627
I2578
aF4494.2767697325817
aF-349.13057626542792
aa(lp1628
I2598
aF3657.9631800714897
aF-280.63621464512346
aa(lp1629
I2630
aF3415.9292790697468
aF-214.72999211343512
aa(lp1630
I2654
aF2854.4438360849799
aF-224.81487490676409
aa(lp1631
I2688
aF2531.5618468299922
aF-23.97296856395559
aa(lp1632
I2733
aF2124.1755031189778
aF-89.597597811819128
aa(lp1633
I2754
aF1519.5417220178047
aF68.82844127949366
aa(lp1634
I2774
aF1391.1193934540231
aF-23.612805822497251
aa(lp1635
I2799
aF1096.7895658730865
aF72.096896888876131
aa(lp1636
I2845
aF886.61396795589849
aF5.813081780237269
aa(lp1637
I2873
aF610.30442918703375
aF110.68671488753425
aa(lp1638
I2915
aF282.19535875178212
aF68.754694480627606
aa(lp1639
I2952
aF192.76794141629293
aF46.569054513515489
aa(lp1640
I3001
aF54.559713919183558
aF41.419202093374054
aa(lp1641
I3026
aF24.402648214106161
aF-85.337527021509175
aa(lp1642
I3051
aF-25.651649633611818
aF25.083933931678295
aa(lp1643
I3074
aF-24.378774816695358
aF62.966090262820117
aa(lp1644
I3107
aF67.791413385235131
aF-127.37557369600032
aa(lp1645
I3129
aF194.47703516268763
aF-182.00817674293666
aa(lp1646
I3155
aF337.99951389092212
aF-138.54574975750472
aa(lp1647
I3203
aF555.08383325596424
aF-280.68400068708434
aa(lp1648
I3246
aF823.24382981193048
aF-290.94078763463028
aa(lp1649
I3272
aF1215.4987397290961
aF-516.80915764383053
aa(lp1650
I3300
aF1587.2186425662189
aF-590.39925542565447
aa(lp1651
I3348
aF1886.3305185684101
aF-615.30262352275759
aa(lp1652
I3371
aF2463.343512502553
aF-767.18844504002732
aa(lp1653
I3401
aF2773.1412037895016
aF-800.10135729279727
aa(lp1654
I3436
aF3228.7372885203827
aF-972.80038438084216
aa(lp1655
I3473
aF3770.5085359127793
aF-1137.5650094129096
aa(lp1656
I3497
aF4326.0294961038235
aF-1188.3383203819362
aa(lp1657
I3547
aF4768.1434325585387
aF-1337.9883081085586
aa(lp1658
I3587
aF5714.9794039907365
aF-1456.0657156250163
aa(lp1659
I3613
aF6419.0370354607658
aF-1553.1150224346509
aa(lp1660
I3662
aF6995.6163669186872
aF-1673.8298281642019
aa(lp1661
I3696
aF8025.786072921077
aF-1841.1841555681915
aa(lp1662
I3737
aF8671.3491787196617
aF-1962.1126049063662
aa(lp1663
I3782
aF9533.4829610442757
aF-2099.9754757121464
aa(lp1664
I3807
aF10319.450265674577
aF-2237.2259662264432
aa(lp1665
I3840
aF10971.579607220432
aF-2377.2525655298887
aa(lp1666
I3873
aF11606.976277358433
aF-2393.730490095722
aa(lp1667
I3903
aF12217.516374025652
aF-2672.518672325758
aa(lp1668
I3931
aF12846.88356203377
aF-2638.7823843296742
aa(lp1669
I3979
aF13463.53646059982
aF-2736.4945588098249
aa(lp1670
I4002
aF14260.471292694392
aF-2870.5856310197769
aa(lp1671
I4050
aF14844.026737071446
aF-2928.3095246568464
aa(lp1672
I4082
aF15544.911786961882
aF-2995.512794452331
aa(lp1673
I4117
aF16072.704447921536
aF-3220.3917600459449
aa(lp1674
I4166
aF16747.215250003403
aF-3197.0986829735998
aa(lp1675
I4201
aF17328.448022123903
aF-3225.9421777381172
aa(lp1676
I4237
aF17729.906351601239
aF-3433.3961799784488
aa(lp1677
I4262
aF18145.361732421632
aF-3379.7442622562003
aa(lp1678
I4306
aF18473.149906637878
aF-3477.7685491789957
aa(lp1679
I4340
aF18827.328400555067
aF-3503.5701030586447
aa(lp1680
I4384
aF19134.256002542479
aF-3480.7168069331869
aa(lp1681
I4427
aF19383.874315983383
aF-3403.3900378389567
aa(lp1682
I4467
aF19642.374013952194
aF-3552.3657023585533
aa(lp1683
I4517
aF19666.071819001099
aF-3483.314397408767
aa(lp1684
I4547
aF19736.720987003562
aF-3414.6874852910537
aa(lp1685
I4595
aF19607.890891488063
aF-3273.1436096995167
aa(lp1686
I4631
aF19476.394031609056
aF-3261.0402101206328
aa(lp1687
I4672
aF19315.310163426766
aF-3324.913742721898
aa(lp1688
I4702
aF19121.777639930595
aF-3041.2379186840253
aa(lp1689
I4734
aF18797.399361087857
aF-3122.5547641750286
aa(lp1690
I4759
aF18575.520095303127
aF-2989.45920218423
aa(lp1691
I4789
aF18432.887065069113
aF-2957.2031791242803
aa(lp1692
I4820
aF18049.724701255669
aF-2785.8156933873784
aaa(lp1693
(lp1694
I0
aF0
aF-0
aa(lp1695
I42
aF-61.665002034782816
aF77.10141778703904
aa(lp1696
I72
aF-73.426969706132354
aF131.13971869966835
aa(lp1697
I93
aF-118.40489936378299
aF14.262664314134771
aa(lp1698
I120
aF-255.41218817080022
aF146.04225618733204
aa(lp1699
I166
aF-250.88815510326032
aF41.06126857522419
aa(lp1700
I211
aF-629.05174913681117
aF130.81530959623689
aa(lp1701
I232
aF-1033.5104311595071
aF53.431808792587134
aa(lp1702
I252
aF-1261.7494931644305
aF-7.2417307947935683
aa(lp1703
I291
aF-1341.9802845360321
aF20.63856036436124
aa(lp1704
I329
aF-1782.329746719344
aF-112.42015670333961
aa(lp1705
I372
aF-2287.3139761171947
aF-127.73190647312634
aa(lp1706
I416
aF-2942.2599693674838
aF-242.82682530049044
aa(lp1707
I451
aF-3616.525591255981
aF-390.5440276366291
aa(lp1708
I485
aF-4166.2491053225158
aF-387.92475165803717
aa(lp1709
I522
aF-4733.0929590085534
aF-552.62196802658923
aa(lp1710
I566
aF-5422.7627276255189
aF-524.34011701279314
aa(lp1711
I587
aF-6239.9885313616423
aF-722.84940983793012
aa(lp1712
I625
aF-6620.7121679917236
aF-860.11901192660503
aa(lp1713
I646
aF-7337.6260352556637
aF-890.80513257050427
aa(lp1714
I688
aF-7721.9711504925126
aF-1031.7775288099822
aa(lp1715
I725
aF-8598.2993583307361
aF-1280.8872795477168
aa(lp1716
I745
aF-9401.7477093676061
aF-1354.7978637479946
aa(lp1717
I792
aF-9845.2574484230881
aF-1399.4687894707545
aa(lp1718
I838
aF-10860.627947100897
aF-1601.4474883710504
aa(lp1719
I860
aF-11777.579211100054
aF-1794.1020902497012
aa(lp1720
I907
aF-12118.226754402251
aF-1874.7244235972912
aa(lp1721
I956
aF-13001.60308004837
aF-2097.0257300753933
aa(lp1722
I996
aF-13946.762645980529
aF-2325.3275494543268
aa(lp1723
I1021
aF-14812.121238957003
aF-2531.8062917396214
aa(lp1724
I1043
aF-15229.8747860986
aF-2598.9631430814848
aa(lp1725
I1082
aF-15576.444509198007
aF-2708.7148877367499
aa(lp1726
I1131
aF-16186.891934696792
aF-2921.3249531649667
aa(lp1727
I1172
aF-16936.524699661022
aF-3114.8440124587128
aa(lp1728
I1194
aF-17413.969696419277
aF-3072.1827622397864
aa(lp1729
I1244
aF-17724.601327787823
aF-3199.3187836075872
aa(lp1730
I1279
aF-18306.42772531624
aF-3329.4951693086277
aa(lp1731
I1322
aF-18599.213285698785
aF-3457.7627013661267
aa(lp1732
I1343
aF-18970.506536051416
aF-3548.8471426631791
aa(lp1733
I1378
aF-19054.595495256988
aF-3548.2613535699365
aa(lp1734
I1407
aF-19313.125036048088
aF-3686.5286815154946
aa(lp1735
I1457
aF-19440.127683496739
aF-3751.1167459634621
aa(lp1736
I1488
aF-19599.42138736714
aF-3831.5777433520648
aa(lp1737
I1509
aF-19673.169720818725
aF-3916.3187313710037
aa(lp1738
I1543
aF-19637.6431612132
aF-3903.6788763390737
aa(lp1739
I1566
aF-19557.633748301083
aF-3894.7291715663141
aa(lp1740
I1586
aF-19567.820294211193
aF-3911.102114166611
aa(lp1741
I1622
aF-19502.947573156936
aF-3887.4557408739647
aa(lp1742
I1648
aF-19335.145738085186
aF-3947.9476365981495
aa(lp1743
I1691
aF-19239.942413226625
aF-3934.267932333672
aa(lp1744
I1730
aF-18831.462526674262
aF-3948.536620229906
aa(lp1745
I1754
aF-18502.246004979086
aF-3910.7553709878607
aa(lp1746
I1775
aF-18178.56468251656
aF-3810.093069917868
aa(lp1747
I1808
aF-17982.71900730881
aF-3827.4960808484602
aa(lp1748
I1828
aF-17588.131837107128
aF-3783.9207817181896
aa(lp1749
I1866
aF-17275.870807268366
aF-3717.4618590635446
aa(lp1750
I1910
aF-16775.46483767567
aF-3702.1677022419467
aa(lp1751
I1956
aF-16118.998498720817
aF-3578.1106852100556
aa(lp1752
I2003
aF-15430.105061342552
aF-3449.4248222708188
aa(lp1753
I2036
aF-14613.405037146753
aF-3210.4105832526038
aa(lp1754
I2074
aF-14113.901352375378
aF-3310.8074595466996
aa(lp1755
I2110
aF-13273.190366476421
aF-3070.7039888909635
aa(lp1756
I2146
aF-12519.896230853397
aF-2952.2131628300194
aa(lp1757
I2184
aF-11842.429727357772
aF-2821.592765817285
aa(lp1758
I2221
aF-11063.466217743926
aF-2663.7054410928899
aa(lp1759
I2246
aF-10227.4035964009
aF-2536.4676846972202
aa(lp1760
I2267
aF-9840.2215172383003
aF-2451.5582714882571
aa(lp1761
I2303
aF-9351.1382209350177
aF-2436.0616127855969
aa(lp1762
I2348
aF-8561.4316255507165
aF-2112.0753061060359
aa(lp1763
I2397
aF-7647.854585842596
aF-2005.6914229413167
aa(lp1764
I2422
aF-6771.2727310286955
aF-1798.7323530798033
aa(lp1765
I2459
aF-6215.71944957502
aF-1743.7569019604939
aa(lp1766
I2480
aF-5559.1792503794359
aF-1628.3783824967384
aa(lp1767
I2511
aF-5158.2099098470135
aF-1402.0812073079942
aa(lp1768
I2549
aF-4520.0680474558449
aF-1328.8389830247072
aa(lp1769
I2590
aF-3970.7718927687911
aF-1163.0235701028123
aa(lp1770
I2633
aF-3323.8023241352339
aF-1104.6579739769174
aa(lp1771
I2672
aF-2659.8902494457643
aF-798.13490766389214
aa(lp1772
I2719
aF-2153.9804550149688
aF-809.89385367453019
aa(lp1773
I2766
aF-1647.8089096105905
aF-612.72809043601706
aa(lp1774
I2790
aF-1066.5678055115752
aF-442.44383118683788
aa(lp1775
I2815
aF-862.07551792959976
aF-416.44466769933615
aa(lp1776
I2863
aF-722.4126394713395
aF-364.08790931419935
aa(lp1777
I2911
aF-390.16156109485286
aF-219.32640054808786
aa(lp1778
I2932
aF-208.43496584463065
aF-89.219546812459726
aa(lp1779
I2977
aF-52.796775578595245
aF-116.99254039259722
aa(lp1780
I3025
aF7.9927662151597918
aF-77.371735949846041
aa(lp1781
I3067
aF-36.626146372815718
aF-98.624757402733437
aa(lp1782
I3109
aF-131.63009388217134
aF33.27975298141093
aa(lp1783
I3149
aF-259.41698564859365
aF58.135342421084452
aa(lp1784
I3169
aF-389.09941394320242
aF199.42985649853094
aa(lp1785
I3217
aF-645.44407571378872
aF41.896326136378534
aa(lp1786
I3245
aF-1033.9213374573496
aF-2.7926095762837519
aa(lp1787
I3274
aF-1219.3468631344142
aF-22.03667001959667
aa(lp1788
I3304
aF-1589.1722344985103
aF-46.495598808245177
aa(lp1789
I3335
aF-1969.9821727048495
aF-31.725431732475101
aa(lp1790
I3361
aF-2377.9161563669318
aF-126.10868880649838
aa(lp1791
I3407
aF-2770.6551083861441
aF-215.45831644667032
aa(lp1792
I3445
aF-3403.3499570735066
aF-323.63791768699485
aa(lp1793
I3485
aF-3993.6542122491837
aF-427.25504911658237
aa(lp1794
I3509
aF-4711.1642237945707
aF-508.5502743865103
aa(lp1795
I3554
aF-5206.3111761481377
aF-532.44075655822382
aa(lp1796
I3595
aF-5966.79862222269
aF-628.22557576810993
aa(lp1797
I3622
aF-6697.3140953896645
aF-929.44663629044999
aa(lp1798
I3653
aF-7373.1085500562322
aF-1052.6235466850226
aa(lp1799
I3675
aF-7918.9813965107151
aF-1115.9518866204482
aa(lp1800
I3721
aF-8294.0756109013018
aF-1142.7247714760679
aa(lp1801
I3742
aF-9275.5858987934698
aF-1218.5616882793995
aa(lp1802
I3775
aF-9734.0869631356127
aF-1502.5195205967641
aa(lp1803
I3804
aF-10475.392307674356
aF-1630.9732463183923
aaa(lp1804
(lp1805
I0
aF0
aF0
aa(lp1806
I22
aF-59.956386855364983
aF34.972566094231894
aa(lp1807
I59
aF-12.846980586385717
aF-13.712634365457557
aa(lp1808
I100
aF-87.327977006913855
aF-111.25790156745822
aa(lp1809
I133
aF-42.405387052008621
aF-231.60207895013068
aa(lp1810
I175
aF-71.243697964967538
aF-340.19644364533832
aa(lp1811
I211
aF-59.363637949720129
aF-681.69943867361008
aa(lp1812
I261
aF19.757312253409253
aF-1012.2250128880355
aa(lp1813
I310
aF61.08368714878344
aF-1464.3380328910575
aa(lp1814
I360
aF214.86263460790343
aF-2069.6642846077962
aa(lp1815
I404
aF273.16510485377194
aF-2671.5603111308255
aa(lp1816
I436
aF338.92653733416529
aF-3328.6228489723717
aa(lp1817
I480
aF619.77893154125991
aF-3891.7679751925184
aa(lp1818
I502
aF683.45616565701812
aF-4720.0501921010882
aa(lp1819
I533
aF610.44516254278062
aF-5000.604034251639
aa(lp1820
I581
aF840.30344644634329
aF-5580.6284825660841
aa(lp1821
I625
aF1111.8590472292935
aF-6419.788382117822
aa(lp1822
I671
aF1276.5015914117712
aF-7262.8433173798485
aa(lp1823
I700
aF1424.3006813864774
aF-8239.5405321644303
aa(lp1824
I730
aF1592.1025883047776
aF-8783.7075009606688
aa(lp1825
I779
aF1793.178822068694
aF-9444.9738310513112
aa(lp1826
I803
aF2030.048616318039
aF-10507.864623973539
aa(lp1827
I824
aF2211.9293477267165
aF-10927.197034743149
aa(lp1828
I873
aF2176.6609821369584
aF-11390.571658735806
aa(lp1829
I900
aF2475.0697196176284
aF-12301.111193147099
aa(lp1830
I924
aF2620.8153034920538
aF-12888.717477247052
aa(lp1831
I955
aF2608.535175271687
aF-13262.00717613609
aa(lp1832
I1000
aF2840.8874635728585
aF-13896.568959363311
aa(lp1833
I1029
aF3091.8684569143616
aF-14777.184342914119
aa(lp1834
I1079
aF3192.9238713263962
aF-15242.622650472993
aa(lp1835
I1109
aF3470.9701416814837
aF-16023.766652219923
aa(lp1836
I1135
aF3563.7019940089926
aF-16415.008137836434
aa(lp1837
I1185
aF3671.9616129035567
aF-16776.314750754434
aa(lp1838
I1221
aF3864.1074530344094
aF-17486.550872058786
aa(lp1839
I1270
aF3934.9556816029658
aF-17931.424016187746
aa(lp1840
I1296
aF4213.2623692544867
aF-18346.566296166457
aa(lp1841
I1337
aF4262.7673218918017
aF-18626.700006326613
aa(lp1842
I1361
aF4321.6706739321598
aF-18913.740897656156
aa(lp1843
I1385
aF4394.962055715132
aF-19118.209920204663
aa(lp1844
I1419
aF4483.1438665830892
aF-19242.821106750234
aa(lp1845
I1447
aF4567.6791788465016
aF-19244.910162380635
aa(lp1846
I1485
aF4503.8996630740576
aF-19398.102688975086
aa(lp1847
I1519
aF4635.7001639205855
aF-19460.823351858875
aa(lp1848
I1541
aF4756.2219510086416
aF-19405.852065653464
aa(lp1849
I1561
aF4623.9113263758727
aF-19503.647142216592
aa(lp1850
I1592
aF4752.6447647624682
aF-19335.310479409261
aa(lp1851
I1639
aF4783.7851204274984
aF-19183.279096351609
aa(lp1852
I1675
aF4762.2939189423532
aF-18959.381778997089
aa(lp1853
I1717
aF4720.2429309491608
aF-18699.194427637158
aa(lp1854
I1743
aF4714.8377870750865
aF-18373.669644992286
aa(lp1855
I1791
aF4613.9758774110323
aF-18139.737699692618
aa(lp1856
I1837
aF4519.7541625790091
aF-17592.037965274871
aa(lp1857
I1858
aF4415.6329918905949
aF-17048.946399743392
aa(lp1858
I1903
aF4424.1076436670082
aF-16677.340668704397
aa(lp1859
I1941
aF4227.1224352725112
aF-16209.897551557659
aa(lp1860
I1964
aF4132.1855539037624
aF-15455.129812016457
aa(lp1861
I2003
aF4019.6967014855827
aF-15105.415642351783
aa(lp1862
I2034
aF3966.7419809925368
aF-14435.812360881218
aa(lp1863
I2063
aF3803.8987676859283
aF-13796.946163614315
aa(lp1864
I2101
aF3642.1443471507478
aF-13351.032111880033
aa(lp1865
I2146
aF3454.9663097175444
aF-12487.212607258813
aa(lp1866
I2177
aF3350.4389398746239
aF-11634.336824462196
aa(lp1867
I2212
aF3173.2656598736571
aF-11107.728953239453
aa(lp1868
I2250
aF2971.3097275412101
aF-10365.652995547845
aa(lp1869
I2285
aF2796.352764544722
aF-9530.5045995997934
aa(lp1870
I2310
aF2607.3140472877099
aF-8939.9503954536067
aa(lp1871
I2356
aF2608.4273667371308
aF-8325.8685927773749
aa(lp1872
I2399
aF2341.0620648964718
aF-7344.2716795072038
aa(lp1873
I2433
aF2025.4630741002411
aF-6642.864209796433
aa(lp1874
I2482
aF1862.6518592657833
aF-5969.7695277961138
aa(lp1875
I2525
aF1636.6111681374891
aF-5030.6205027835276
aa(lp1876
I2560
aF1525.7354670906291
aF-4328.9932412132403
aa(lp1877
I2607
aF1244.0064643942183
aF-3787.7452658868228
aa(lp1878
I2642
aF1082.6301995615086
aF-3076.5817358348741
aa(lp1879
I2686
aF960.6552682734889
aF-2536.8720638631889
aa(lp1880
I2721
aF775.10482067529165
aF-1956.3622484811544
aa(lp1881
I2745
aF725.82830169282397
aF-1565.7771085722632
aa(lp1882
I2784
aF666.80966472098157
aF-1297.100293472226
aa(lp1883
I2828
aF497.36991532252478
aF-933.48729236541601
aa(lp1884
I2851
aF308.81334325244961
aF-552.43710613547773
aa(lp1885
I2874
aF290.10343506031859
aF-374.58688202624359
aa(lp1886
I2902
aF211.15024135608851
aF-291.04545027707366
aa(lp1887
I2929
aF130.01300837468591
aF-245.01323837036611
aa(lp1888
I2955
aF116.76545509510757
aF-106.58801357192414
aa(lp1889
I2975
aF69.834954421946151
aF21.920641453829369
aa(lp1890
I3003
aF89.251255298729887
aF1.9980939968079383
aa(lp1891
I3033
aF5.47972316451109
aF-5.9652825073978262
aa(lp1892
I3079
aF-27.983371386249129
aF-42.549663920647504
aa(lp1893
I3122
aF-3.9095218089744037
aF-160.50215549813541
aa(lp1894
I3157
aF-106.34291758367588
aF-335.47509335977708
aa(lp1895
I3187
aF-69.292710152185975
aF-581.10011625320794
aa(lp1896
I3209
aF30.323353458154543
aF-803.41580077428785
aa(lp1897
I3255
aF59.204794609564857
aF-1016.42296431841
aa(lp1898
I3297
aF86.377343100335281
aF-1511.4606009673373
aa(lp1899
I3347
aF80.30838577239183
aF-1882.3581216936598
aa(lp1900
I3380
aF310.99725745396449
aF-2492.321345239618
aa(lp1901
I3428
aF266.24938065730743
aF-2958.8530143971989
aaa(lp1902
(lp1903
I0
aF0
aF0
aa(lp1904
I21
aF-88.414123264282665
aF26.781209820738436
aa(lp1905
I55
aF79.990046029690333
aF-0.70524733820264984
aa(lp1906
I95
aF56.604028475411575
aF-32.338916823630285
aa(lp1907
I134
aF181.53772328770651
aF-157.42138975788674
aa(lp1908
I181
aF313.60143236201247
aF-296.30108762477437
aa(lp1909
I231
aF684.23664369857522
aF-392.96414598417488
aa(lp1910
I253
aF1113.6991957414737
aF-547.26969287407792
aa(lp1911
I289
aF1208.6855805544417
aF-571.38636138217316
aa(lp1912
I315
aF1564.3386772372501
aF-789.09562145572602
aa(lp1913
I354
aF1851.4196709584407
aF-980.96206729117125
aa(lp1914
I375
aF2436.3714830359991
aF-1117.7704406909663
aa(lp1915
I408
aF2743.3263636861293
aF-1138.0167561902031
aa(lp1916
I445
aF3188.2433702272879
aF-1381.3895297227523
aa(lp1917
I484
aF3761.8575089844235
aF-1605.9937369419215
aa(lp1918
I532
aF4471.4325284369306
aF-1697.3928416317319
aa(lp1919
I564
aF5179.3570250998782
aF-2024.4771393987644
aa(lp1920
I602
aF5800.7936180592515
aF-2259.2237404950311
aa(lp1921
I639
aF6505.5503768147009
aF-2566.1029911694582
aa(lp1922
I661
aF7204.4605673197721
aF-2764.4303626177471
aa(lp1923
I681
aF7588.8790564394285
aF-2949.7826229724969
aa(lp1924
I714
aF8050.7199664810678
aF-3014.537519059435
aa(lp1925
I749
aF8721.8224950263266
aF-3217.6724981478046
aa(lp1926
I798
aF9327.6560283415874
aF-3465.0778362610422
aa(lp1927
I834
aF10280.940516153194
aF-3912.8169771200037
aa(lp1928
I876
aF11027.329958444034
aF-4057.0525654890062
aa(lp1929
I901
aF11850.281313395986
aF-4321.1282917095959
aa(lp1930
I938
aF12367.977373848073
aF-4347.5959836988004
aa(lp1931
I978
aF13067.985552137761
aF-4545.1736350008177
aa(lp1932
I1027
aF13722.575430940928
aF-4866.1619380850843
aa(lp1933
I1058
aF14674.363877356811
aF-5130.7976246427643
aa(lp1934
I1090
aF15183.011496784811
aF-5259.8151285214699
aa(lp1935
I1112
aF15712.099161168862
aF-5283.410450294582
aa(lp1936
I1141
aF15837.131255150129
aF-5403.5181639845277
aa(lp1937
I1187
aF16347.588923708006
aF-5542.7826060600128
aa(lp1938
I1235
aF16988.889976582141
aF-5725.8645863692682
aa(lp1939
I1275
aF17534.675165759309
aF-5868.6459455944232
aa(lp1940
I1306
aF17872.51655662313
aF-5847.6761236458542
aa(lp1941
I1328
aF18181.585537950868
aF-6060.6605952036916
aa(lp1942
I1376
aF18466.774530223393
aF-6093.1417818592017
aa(lp1943
I1396
aF18596.829709937923
aF-6128.6580832805648
aa(lp1944
I1442
aF18747.127916630543
aF-6167.2117371666964
aa(lp1945
I1469
aF19001.371637367876
aF-6122.953541412704
aa(lp1946
I1505
aF18991.949384549709
aF-6111.990453908672
aa(lp1947
I1539
aF19045.791987553541
aF-5969.4218032018007
aa(lp1948
I1576
aF19057.155379111209
aF-5930.4874470707246
aa(lp1949
I1597
aF19016.091933925592
aF-6015.4328895593544
aa(lp1950
I1624
aF18879.429119565066
aF-5865.776488705108
aa(lp1951
I1650
aF18725.552090360339
aF-5890.6802164551464
aa(lp1952
I1694
aF18633.562352424899
aF-5723.2570237697082
aa(lp1953
I1716
aF18342.839269405726
aF-5697.6917535139501
aa(lp1954
I1754
aF18022.823517915815
aF-5522.9301799298919
aa(lp1955
I1788
aF17773.786380565361
aF-5428.897129180611
aa(lp1956
I1808
aF17444.06469908675
aF-5358.2373076437198
aa(lp1957
I1850
aF17188.873262470472
aF-5141.699316813294
aa(lp1958
I1875
aF16664.922968293849
aF-4972.6334089405891
aa(lp1959
I1915
aF16393.205314916424
aF-4821.9474690848438
aa(lp1960
I1958
aF15673.142742040423
aF-4550.9195554913449
aa(lp1961
I1994
aF15086.817886151031
aF-4380.0859488981359
aa(lp1962
I2034
aF14537.70521297368
aF-4162.9244778559805
aa(lp1963
I2059
aF13902.076229368931
aF-3804.4209403266696
aa(lp1964
I2107
aF13334.554284659185
aF-3765.7341710631677
aa(lp1965
I2157
aF12498.866566646046
aF-3457.1501872465042
aa(lp1966
I2189
aF11573.216644923064
aF-3147.6674212992884
aa(lp1967
I2214
aF10841.200194188443
aF-3006.1253125184435
aa(lp1968
I2256
aF10420.308063001217
aF-2764.9615226170081
aa(lp1969
I2297
aF9561.3649489622603
aF-2563.7204850329326
aa(lp1970
I2341
aF8801.7922264465215
aF-2299.4265870468012
aa(lp1971
I2388
aF7941.8963143573128
aF-1891.6939969725595
aa(lp1972
I2422
aF6987.6927865244234
aF-1644.6820994787236
aa(lp1973
I2454
aF6320.7429964177127
aF-1547.5671550289164
aa(lp1974
I2481
aF5742.2435886928006
aF-1327.8729936588966
aa(lp1975
I2510
aF5232.4897695001137
aF-1170.897003730523
aa(lp1976
I2533
aF4640.2385786920304
aF-1066.6665622671214
aa(lp1977
I2566
aF4279.1674375261045
aF-971.71861260282355
aa(lp1978
I2590
aF3865.4968677769848
aF-744.90266261329907
aa(lp1979
I2617
aF3468.1988986554079
aF-693.19254682777978
aa(lp1980
I2638
aF2988.299579519994
aF-616.87906427954067
aa(lp1981
I2671
aF2714.2695744852344
aF-545.35150677740592
aa(lp1982
I2705
aF2288.548900412206
aF-271.36590690315995
aa(lp1983
I2748
aF1834.72686162887
aF-335.21787586739208
aa(lp1984
I2790
aF1388.1076314115276
aF-181.60964413165843
aa(lp1985
I2840
aF1020.9617991184732
aF-54.422019853567946
aa(lp1986
I2869
aF609.64727506029897
aF-5.4648488987623125
aa(lp1987
I2898
aF443.9582072714386
aF14.171342980312346
aa(lp1988
I2918
aF257.12278969264401
aF76.110239896340559
aa(lp1989
I2942
aF210.65221617650718
aF10.314274917875842
aa(lp1990
I2988
aF104.8763492397035
aF38.741336567162918
aa(lp1991
I3027
aF-70.833730826352877
aF-70.355050271418236
aa(lp1992
I3062
aF-43.378829739652879
aF-12.791612084729852
aa(lp1993
I3089
aF104.11668426167641
aF-48.816419551508062
aa(lp1994
I3112
aF121.40603601797227
aF-152.35668174222297
aa(lp1995
I3143
aF250.82073642848465
aF-182.22289965911904
aa(lp1996
I3176
aF370.88672048953646
aF-251.45418122600171
aa(lp1997
I3204
aF603.41060158185917
aF-294.22216850328385
aa(lp1998
I3229
aF772.56416098511806
aF-447.18988928321505
aa(lp1999
I3264
aF1008.1592013608915
aF-565.69005115071388
aa(lp2000
I3308
aF1364.5148834215292
aF-772.64435244944389
aa(lp2001
I3355
aF1875.9621601102438
aF-919.98118091966603
aa(lp2002
I3384
aF2395.3248105433277
aF-1144.4357418947927
aa(lp2003
I3434
aF2806.5048889346394
aF-1292.1459942179217
aa(lp2004
I3475
aF3533.3027035089594
aF-1537.4813375639928
aa(lp2005
I3500
aF4228.8607129625279
aF-1757.9600624403697
aa(lp2006
I3522
aF4665.3632345605974
aF-1914.6208399791758
aa(lp2007
I3569
aF5101.9232189310587
aF-2059.7985704624884
aa(lp2008
I3590
aF5916.9169197843157
aF-2312.1867880920531
aa(lp2009
I3620
aF6201.8242361157254
aF-2498.9746350837977
aa(lp2010
I3640
aF6776.3517637845434
aF-2699.7236661611096
aa(lp2011
I3661
aF7218.2823382365304
aF-2857.53469062973
aa(lp2012
I3688
aF7643.8729932268743
aF-2836.1773602526528
aa(lp2013
I3730
aF8116.413482401902
aF-3152.2642038900653
aa(lp2014
I3771
aF8994.0604744177435
aF-3392.3828757588926
aa(lp2015
I3815
aF9839.021685352096
aF-3697.3464011091082
aa(lp2016
I3843
aF10660.485655769909
aF-3875.0087686706747
aa(lp2017
I3876
aF11268.402445438729
aF-4080.394926699857
aa(lp2018
I3919
aF11919.734988467262
aF-4238.7782227076459
aa(lp2019
I3940
aF12726.599858278136
aF-4581.6942972608604
aa(lp2020
I3984
aF13086.501227606464
aF-4667.9500265223414
aa(lp2021
I4018
aF13975.762558463553
aF-4877.8768348883686
aa(lp2022
I4045
aF14436.828309109362
aF-5031.8267315462053
aa(lp2023
I4067
aF14991.474317548153
aF-5189.1953641375367
aa(lp2024
I4117
aF15388.159729550644
aF-5207.6935045652353
aa(lp2025
I4158
aF16077.517418129943
aF-5393.8132187114543
aa(lp2026
I4189
aF16637.82254413519
aF-5596.6407597377947
aa(lp2027
I4214
aF16997.129357053342
aF-5711.8002693998124
aa(lp2028
I4241
aF17345.154491456236
aF-5748.3240223666717
aa(lp2029
I4283
aF17677.497880070157
aF-5846.0029870696644
aa(lp2030
I4330
aF18024.248027932797
aF-5976.0057945133767
aa(lp2031
I4359
aF18462.444343727828
aF-5944.7627986814541
aa(lp2032
I4406
aF18589.217011420846
aF-6093.6040177737877
aa(lp2033
I4437
aF18923.794308285869
aF-6063.9766375914232
aa(lp2034
I4475
aF18919.974062350502
aF-6066.0607011664843
aa(lp2035
I4497
aF19048.968127516491
aF-6072.886019815538
aa(lp2036
I4530
aF19101.605565486378
aF-6021.0514047535644
aa(lp2037
I4555
aF19031.56144148286
aF-6032.1210936779053
aaa(lp2038
(lp2039
I0
aF0
aF-0
aa(lp2040
I42
aF48.601726008052765
aF72.919213266820506
aa(lp2041
I72
aF-36.152366436941342
aF30.111641892352594
aa(lp2042
I107
aF-162.45698139329687
aF20.18450355605971
aa(lp2043
I153
aF-257.22106343799032
aF50.487142371300465
aa(lp2044
I197
aF-603.21030078705235
aF-205.15497429130068
aa(lp2045
I243
aF-814.11797167493978
aF-188.22109964848181
aa(lp2046
I266
aF-1120.918561835316
aF-417.46451251700313
aa(lp2047
I313
aF-1431.0563240706197
aF-519.44309293661638
aa(lp2048
I341
aF-1937.914735278023
aF-652.88299920526856
aa(lp2049
I382
aF-2223.0818942489091
aF-815.50908398971308
aa(lp2050
I403
aF-2832.7226927885526
aF-933.01983165327192
aa(lp2051
I447
aF-3151.321980604323
aF-1143.1204234043162
aa(lp2052
I476
aF-3777.1161920268105
aF-1636.151491235071
aa(lp2053
I526
aF-4260.7869629858696
aF-1638.6354018254024
aa(lp2054
I572
aF-5065.4303226793272
aF-2108.1697304716604
aa(lp2055
I622
aF-5925.4848835047223
aF-2356.2850876369848
aa(lp2056
I648
aF-6730.4109482771419
aF-2964.8135183370482
aa(lp2057
I692
aF-7231.8818383880107
aF-3162.1796200335461
aa(lp2058
I719
aF-8055.3358395473715
aF-3571.1993626712947
aa(lp2059
I743
aF-8581.0109653244253
aF-3741.6602573555169
aa(lp2060
I779
aF-8953.5625992618134
aF-3997.6258309430532
aa(lp2061
I807
aF-9703.9310344371115
aF-4449.4109719285989
aa(lp2062
I827
aF-10179.202333361323
aF-4651.8367322234235
aa(lp2063
I877
aF-10543.303100077965
aF-4851.5964211254723
aa(lp2064
I913
aF-11419.724527347604
aF-5340.8096164644876
aa(lp2065
I938
aF-12069.793201658535
aF-5693.626124784395
aa(lp2066
I987
aF-12437.521275529705
aF-5865.9783174902295
aa(lp2067
I1012
aF-13348.545864046002
aF-6331.9501783535925
aa(lp2068
I1040
aF-13767.807602899991
aF-6506.7079183797759
aa(lp2069
I1065
aF-14209.703868360337
aF-6766.4654427073938
aa(lp2070
I1086
aF-14543.209209325176
aF-6993.3247434035866
aa(lp2071
I1108
aF-14802.50212813181
aF-7199.8676243241644
aa(lp2072
I1130
aF-15186.660442411854
aF-7330.742227293812
aa(lp2073
I1157
aF-15419.455589399438
aF-7384.2680464126915
aa(lp2074
I1197
aF-15671.547100657328
aF-7774.7842002460902
aa(lp2075
I1237
aF-16265.897857420976
aF-7964.1331893786837
aa(lp2076
I1260
aF-16611.37174882818
aF-8004.3026889658449
aa(lp2077
I1289
aF-16848.191655335351
aF-8202.0580756693907
aa(lp2078
I1317
aF-17055.497688650936
aF-8473.7780777532735
aa(lp2079
I1357
aF-17261.780836794242
aF-8533.2936739017277
aa(lp2080
I1394
aF-17448.641161805204
aF-8685.3129862604073
aa(lp2081
I1428
aF-17638.490212845281
aF-8837.3249183403168
aa(lp2082
I1460
aF-17820.388256062477
aF-9116.918111332925
aa(lp2083
I1509
aF-17764.3913269324
aF-8984.1841632747637
aa(lp2084
I1549
aF-17850.735880218355
aF-9157.3120251729943
aa(lp2085
I1589
aF-17812.230419664236
aF-9077.157298667491
aa(lp2086
I1632
aF-17634.261361329762
aF-9134.1517390903209
aa(lp2087
I1658
aF-17426.659479678547
aF-8985.3268651774106
aa(lp2088
I1678
aF-17300.842460538108
aF-9080.599028564915
aa(lp2089
I1714
aF-17112.473582412673
aF-8882.0169347695173
aa(lp2090
I1756
aF-16831.525660611554
aF-8843.4136629071127
aa(lp2091
I1778
aF-16415.478160056835
aF-8623.6859249176141
aa(lp2092
I1801
aF-16157.894942320538
aF-8606.6043019436584
aa(lp2093
I1843
aF-15956.9069109176
aF-8503.8197246542695
aa(lp2094
I1866
aF-15458.509575127455
aF-8106.9922558480785
aa(lp2095
I1905
aF-15194.883276059552
aF-8059.6288326628555
aa(lp2096
I1944
aF-14680.766981487397
aF-7856.5003989211873
aa(lp2097
I1975
aF-14051.500724624457
aF-7659.0518245686981
aa(lp2098
I2021
aF-13608.724369391772
aF-7386.823343116238
aa(lp2099
I2055
aF-12709.131435867659
aF-7063.619457483057
aa(lp2100
I2093
aF-12260.842858835544
aF-6822.8720118331958
aa(lp2101
I2131
aF-11633.348863663097
aF-6411.5874950014404
aa(lp2102
I2166
aF-10967.086255146374
aF-6095.9628588412834
aa(lp2103
I2216
aF-10207.302748048276
aF-5749.4535213669797
aa(lp2104
I2264
aF-9342.3421554568704
aF-5360.8411759578175
aa(lp2105
I2305
aF-8442.7864042218807
aF-4867.4626085708951
aa(lp2106
I2339
aF-7663.9528878106457
aF-4400.3149565589001
aa(lp2107
I2379
aF-7045.210742965779
aF-4102.8595128757088
aa(lp2108
I2429
aF-6285.9482328404792
aF-3751.9721776291699
aa(lp2109
I2476
aF-5376.9079605895113
aF-3299.3229487447798
aa(lp2110
I2502
aF-4696.693878939589
aF-2823.5113936035723
aa(lp2111
I2541
aF-4263.2575497904227
aF-2562.1038546547857
aa(lp2112
I2561
aF-3648.8113899191362
aF-2335.2810969181764
aa(lp2113
I2608
aF-3315.4375952525106
aF-2184.6332413112145
aa(lp2114
I2628
aF-2787.9588397618741
aF-1803.3755557886379
aa(lp2115
I2656
aF-2377.7959500429688
aF-1702.2383818756207
aa(lp2116
I2689
aF-2062.8963307918089
aF-1371.1821850591432
aa(lp2117
I2737
aF-1682.5045376699077
aF-1190.4299877198177
aa(lp2118
I2771
aF-1284.6608390416397
aF-927.2463790579227
aa(lp2119
I2803
aF-871.12344382656249
aF-653.85713218582862
aa(lp2120
I2843
aF-649.27015875997267
aF-594.27733630855437
aa(lp2121
I2881
aF-400.79448331141748
aF-367.58912961223996
aa(lp2122
I2924
aF-229.70090966911528
aF-246.3045083523433
aa(lp2123
I2953
aF-108.56700882539275
aF-175.72089758931611
aa(lp2124
I2993
aF-82.841445376584474
aF-116.66075787050522
aa(lp2125
I3038
aF40.393193836977503
aF13.603001680081512
aa(lp2126
I3068
aF-45.338612449538914
aF97.380404850551557
aa(lp2127
I3088
aF-220.67112363955999
aF-43.307378635527982
aa(lp2128
I3132
aF-260.90102801905425
aF31.18843945513251
aa(lp2129
I3156
aF-415.37612932683186
aF-150.12984224549166
aa(lp2130
I3199
aF-553.37359157492892
aF-116.1307396511535
aa(lp2131
I3219
aF-982.17987731693256
aF-179.95653063541963
aa(lp2132
I3244
aF-1113.6195782201307
aF-257.27120531022626
aa(lp2133
I3279
aF-1288.9122279128655
aF-290.31113636723887
aa(lp2134
I3326
aF-1571.3269815677261
aF-591.37012033095141
aa(lp2135
I3362
aF-2148.262042109407
aF-800.92158982428896
aa(lp2136
I3402
aF-2562.9702602120333
aF-935.27295571300317
aaa(lp2137
(lp2138
I0
aF0
aF0
aa(lp2139
I41
aF45.879669580281217
aF-11.73175182446634
aa(lp2140
I65
aF-72.775604478995589
aF25.339745034270493
aa(lp2141
I98
aF-77.799944772643499
aF-125.25694141801499
aa(lp2142
I147
aF35.016524321925232
aF-248.95512290922522
aa(lp2143
I189
aF-117.58809249473447
aF-620.29686481427348
aa(lp2144
I222
aF60.700249817304154
aF-854.52697392468406
aa(lp2145
I272
aF3.6797722559340116
aF-1055.2686216059578
aa(lp2146
I311
aF67.367934061552887
aF-1585.2438790080523
aa(lp2147
I359
aF157.34590135030538
aF-2064.5006648216431
aa(lp2148
I406
aF392.65422799807959
aF-2718.2468931920853
aa(lp2149
I433
aF429.5708694985089
aF-3500.9588722051944
aa(lp2150
I477
aF556.88512493457392
aF-3815.2102385524845
aa(lp2151
I519
aF786.86486699796819
aF-4513.3190793434387
aa(lp2152
I549
aF808.60053667337036
aF-5278.6337597313222
aa(lp2153
I599
aF940.07552779583204
aF-5843.5858431285506
aa(lp2154
I624
aF1155.6134379583266
aF-6774.1571358101637
aa(lp2155
I649
aF1277.1153381530571
aF-7318.4888175112164
aa(lp2156
I693
aF1351.8019463139076
aF-7797.3181739643687
aa(lp2157
I714
aF1610.6491033507882
aF-8728.1393156801605
aa(lp2158
I749
aF1716.026062778833
aF-9044.5177422979668
aa(lp2159
I769
aF1845.9919234727024
aF-9846.435026226367
aa(lp2160
I794
aF1953.7475431648227
aF-10293.743967098155
aa(lp2161
I824
aF2079.2378520470174
aF-10758.213863245612
aa(lp2162
I870
aF2104.8559281063153
aF-11388.685535039349
aa(lp2163
I891
aF2415.8173828415074
aF-12198.086981960631
aa(lp2164
I940
aF2449.7558686168059
aF-12662.069607898457
aa(lp2165
I974
aF2717.6808198499393
aF-13589.210083548425
aa(lp2166
I1011
aF2923.4967438101035
aF-14223.763197835646
aa(lp2167
I1032
aF3067.993786929942
aF-14858.684134747653
aa(lp2168
I1075
aF3213.9530512417432
aF-15171.731162241764
aa(lp2169
I1111
aF3368.5167634857039
aF-15986.465317131997
aa(lp2170
I1156
aF3550.4535481105167
aF-16440.90934981528
aa(lp2171
I1206
aF3753.0738809225959
aF-17087.418998657198
aa(lp2172
I1227
aF3815.8826373158372
aF-17745.274642727247
aa(lp2173
I1259
aF3912.7044661325381
aF-17911.49298129731
aa(lp2174
I1309
aF4123.0408968770998
aF-18372.077024080641
aa(lp2175
I1354
aF4293.0756133902632
aF-18614.724203796417
aa(lp2176
I1387
aF4316.7833138262495
aF-19039.027719204834
aa(lp2177
I1429
aF4400.541226237624
aF-19248.363286952477
aa(lp2178
I1454
aF4576.8445762468054
aF-19417.273575971103
aa(lp2179
I1496
aF4626.9095335995089
aF-19450.730635002779
aa(lp2180
I1525
aF4572.6556015715869
aF-19438.046198128221
aa(lp2181
I1559
aF4656.1816248325076
aF-19456.121887067515
aa(lp2182
I1587
aF4639.4658797250859
aF-19322.179800496146
aa(lp2183
I1607
aF4707.4355453535272
aF-19213.483870099633
aa(lp2184
I1656
aF4613.6004201902861
aF-19084.221679566028
aa(lp2185
I1681
aF4596.3680365251439
aF-18868.223871447957
aa(lp2186
I1719
aF4663.4650161958407
aF-18771.941803964262
aa(lp2187
I1743
aF4574.8541300004617
aF-18336.596597786633
aa(lp2188
I1791
aF4515.3376782799351
aF-18189.869229061464
aa(lp2189
I1815
aF4513.7722020808224
aF-17593.217715871349
aa(lp2190
I1858
aF4477.1357834657174
aF-17339.888963635596
aa(lp2191
I1902
aF4300.7338853436659
aF-16816.559094160111
aa(lp2192
I1925
aF4171.8861425450295
aF-16068.983677774679
aa(lp2193
I1972
aF4150.1778280119779
aF-15826.910317863189
aa(lp2194
I1997
aF4012.4095336541591
aF-14998.079203380837
aa(lp2195
I2021
aF3952.503444534284
aF-14517.024275256423
aa(lp2196
I2054
aF3760.1283313726199
aF-14186.878712234549
aa(lp2197
I2083
aF3716.70536654435
aF-13511.942278380646
aa(lp2198
I2114
aF3481.6172289630899
aF-12978.713387948119
aa(lp2199
I2157
aF3418.2025533585593
aF-12342.518016868846
aa(lp2200
I2205
aF3240.4311938685005
aF-11476.072758073113
aa(lp2201
I2251
aF3075.9538057973505
aF-10523.025179186969
aa(lp2202
I2297
aF2858.7253310869719
aF-9570.4206345916664
aa(lp2203
I2317
aF2537.3196487691207
aF-8687.156237433961
aa(lp2204
I2354
aF2427.0757304207755
aF-8258.5059742579178
aa(lp2205
I2386
aF2256.974234575991
aF-7511.5415139441375
aa(lp2206
I2421
aF2237.6538705867088
aF-6903.5573767634896
aa(lp2207
I2447
aF1959.2227013043912
aF-6185.7258074047913
aa(lp2208
I2471
aF1816.4679197501484
aF-5722.0436406610143
aa(lp2209
I2521
aF1682.1684728458849
aF-5249.5570350709786
aa(lp2210
I2565
aF1520.552950087608
aF-4424.4804375480835
aa(lp2211
I2611
aF1221.0387256207009
aF-3697.3174089199642
aa(lp2212
I2653
aF1130.9945532005381
aF-3015.2571966691075
aa(lp2213
I2677
aF893.92555701958213
aF-2341.7787375072635
aa(lp2214
I2708
aF830.25912177382986
aF-2104.6906320323269
aa(lp2215
I2752
aF680.6850416881648
aF-1730.5262796029749
aa(lp2216
I2798
aF540.2584765927902
aF-1167.2873543932239
aa(lp2217
I2835
aF396.34025667000185
aF-826.20535013891356
aa(lp2218
I2870
aF236.39404581364681
aF-510.96922660228012
aa(lp2219
I2909
aF216.01916122193998
aF-339.92646862351262
aa(lp2220
I2951
aF139.36371741183063
aF-211.46244892645043
aa(lp2221
I2975
aF7.2276984417660852
aF-85.835812526923235
aa(lp2222
I2995
aF52.986386551336921
aF-69.571620489460017
aa(lp2223
I3038
aF-35.001959835513986
aF-40.265289487011714
aa(lp2224
I3061
aF7.2165062782319094
aF-70.580688787374413
aa(lp2225
I3104
aF-20.395051784554806
aF-35.775591429691175
aa(lp2226
I3128
aF-1.4966154201692348
aF-295.42912901870818
aa(lp2227
I3162
aF-54.791616435912815
aF-364.74278353466536
aa(lp2228
I3199
aF-57.130104037871163
aF-508.03229526066809
aa(lp2229
I3244
aF68.241931253970918
aF-850.61966536116847
aa(lp2230
I3272
aF27.18003954705739
aF-1282.289716463908
aa(lp2231
I3294
aF70.072736886744622
aF-1534.0316691636444
aa(lp2232
I3325
aF83.796963905490145
aF-1857.7757483079008
aa(lp2233
I3349
aF223.2309893128911
aF-2260.0842098162211
aa(lp2234
I3394
aF265.99139930984273
aF-2583.1127210905215
aa(lp2235
I3418
aF378.58299510034988
aF-3174.6300045720964
aa(lp2236
I3463
aF489.04285455428811
aF-3624.0570967182784
aa(lp2237
I3487
aF579.78193951715014
aF-4335.380238231749
aa(lp2238
I3510
aF691.46083155368478
aF-4717.2497663122076
aa(lp2239
I3531
aF776.72030366982676
aF-5075.179498640262
aa(lp2240
I3553
aF856.75619324162471
aF-5536.8199477201415
aa(lp2241
I3589
aF926.83176290082042
aF-6049.1174715393254
aa(lp2242
I3639
aF1088.8169996685569
aF-6574.1857944735093
aa(lp2243
I3676
aF1318.2001609076704
aF-7613.4297283468304
aa(lp2244
I3714
aF1451.6690597531428
aF-8294.4088413874888
aa(lp2245
I3740
aF1659.2753815801439
aF-9036.5258922374214
aa(lp2246
I3763
aF1791.0971039405658
aF-9727.0667628182473
aa(lp2247
I3800
aF1860.0329241033555
aF-10039.246871013913
aa(lp2248
I3836
aF2105.3881033445091
aF-10888.771115424959
aa(lp2249
I3879
aF2272.4016822101839
aF-11546.022345312362
aaa(lp2250
(lp2251
I0
aF0
aF-0
aa(lp2252
I29
aF-37.157065257152809
aF-96.180469325087174
aa(lp2253
I70
aF-41.157666226499295
aF-234.4309631298307
aa(lp2254
I98
aF-11.837620874742797
aF-337.24068472665806
aa(lp2255
I134
aF-39.906578943791601
aF-529.12353298785513
aa(lp2256
I158
aF-24.588120151534554
aF-637.66702343333975
aa(lp2257
I204
aF-73.930301871778539
aF-860.1184126425261
aa(lp2258
I241
aF-85.077128828523541
aF-1059.1807191126011
aa(lp2259
I277
aF-116.27069074856229
aF-1263.9630315082281
aa(lp2260
I298
aF-131.88873071189738
aF-1412.2835066599159
aa(lp2261
I344
aF-171.19084651506176
aF-1570.5507175877219
aa(lp2262
I389
aF-205.80090999565613
aF-1766.0613445940041
aa(lp2263
I435
aF-236.49987115237963
aF-1923.6176847611027
aa(lp2264
I459
aF-266.78347188718402
aF-2054.0615718069007
aa(lp2265
I491
aF-332.13867206007103
aF-2238.8535363721244
aa(lp2266
I516
aF-391.87417612639928
aF-2401.7829694903899
aa(lp2267
I540
aF-447.71976286129723
aF-2542.8184592595421
aa(lp2268
I567
aF-489.6182947425047
aF-2639.6517134640162
aa(lp2269
I587
aF-501.90159822851973
aF-2648.8107277502954
aa(lp2270
I627
aF-578.0438114247878
aF-2822.700809539047
aa(lp2271
I657
aF-637.30307489843381
aF-2913.6804302004002
aa(lp2272
I678
aF-654.51897821051102
aF-2897.9370682835424
aa(lp2273
I719
aF-745.96588696532183
aF-3085.8684951843297
aa(lp2274
I762
aF-852.95783264062584
aF-3252.9356917011551
aa(lp2275
I788
aF-963.76475330913877
aF-3405.4585044247815
aa(lp2276
I832
aF-1055.1641527287152
aF-3552.401190265638
aa(lp2277
I861
aF-1169.8409753359513
aF-3685.0727533410868
aa(lp2278
I911
aF-1312.3253864758335
aF-3938.4448728532448
aa(lp2279
I944
aF-1445.8782577761106
aF-4074.8484040193034
aa(lp2280
I974
aF-1518.5488294099923
aF-4119.8808822401179
aa(lp2281
I1024
aF-1629.7699798825327
aF-4275.8563321507409
aa(lp2282
I1045
aF-1750.5250299896993
aF-4368.0017032409532
aa(lp2283
I1073
aF-1833.7577914908679
aF-4491.7800106142877
aa(lp2284
I1113
aF-1955.8417437677904
aF-4687.4088205600137
aa(lp2285
I1133
aF-2045.6316124320342
aF-4753.2514308752061
aa(lp2286
I1161
aF-2096.684249801267
aF-4805.2378556635522
aa(lp2287
I1204
aF-2192.2396594148536
aF-4944.6584306348668
aa(lp2288
I1242
aF-2321.1344321251668
aF-5124.1273565591018
aa(lp2289
I1281
aF-2419.6705788126551
aF-5256.618899387563
aa(lp2290
I1305
aF-2494.3641423696445
aF-5339.4797463732939
aa(lp2291
I1329
aF-2575.1320514139802
aF-5489.0056963169864
aa(lp2292
I1354
aF-2616.2877418315188
aF-5542.8599491501336
aa(lp2293
I1388
aF-2726.5431547903568
aF-5781.0125399688404
aa(lp2294
I1423
aF-2811.3771646013993
aF-5949.371166050938
aa(lp2295
I1455
aF-2873.9939335978952
aF-6074.9482829614317
aa(lp2296
I1485
aF-2936.2058280091305
aF-6217.4025361116146
aa(lp2297
I1529
aF-3043.8713978199712
aF-6491.6923900904912
aa(lp2298
I1555
aF-3105.3282762930439
aF-6667.167866492824
aa(lp2299
I1579
aF-3138.8417629309856
aF-6776.2672845112029
aa(lp2300
I1612
aF-3209.4124869700208
aF-6987.7677244930983
aa(lp2301
I1658
aF-3250.9659354937839
aF-7147.4963733270597
aa(lp2302
I1678
aF-3259.0074685836844
aF-7264.1909891010891
aa(lp2303
I1720
aF-3326.6603350785886
aF-7488.9577101085069
aa(lp2304
I1752
aF-3352.2045420420773
aF-7673.8745484961291
aa(lp2305
I1784
aF-3360.8886432530821
aF-7799.0071044135984
aa(lp2306
I1811
aF-3401.0654522564414
aF-8014.9939342053658
aa(lp2307
I1849
aF-3451.825203756784
aF-8247.2844531474257
aa(lp2308
I1889
aF-3478.3920620320741
aF-8466.4806462985671
aa(lp2309
I1914
aF-3482.4793065086074
aF-8643.8445639412694
aa(lp2310
I1950
aF-3524.0400207207385
aF-8858.88580215191
aa(lp2311
I1990
aF-3557.3154719407403
aF-9102.5110959443737
aa(lp2312
I2012
aF-3553.6508730212536
aF-9269.5499669437686
aa(lp2313
I2042
aF-3577.0296030236618
aF-9426.8466649282545
aa(lp2314
I2079
aF-3583.2846961565911
aF-9573.5949215418696
aa(lp2315
I2114
aF-3592.8396416490214
aF-9755.4789962463165
aa(lp2316
I2148
aF-3593.6993323803963
aF-9900.5879573531001
aa(lp2317
I2196
aF-3627.0575178335794
aF-10118.647846738742
aa(lp2318
I2241
aF-3641.5188942557897
aF-10327.144356694642
aa(lp2319
I2284
aF-3683.114057372859
aF-10576.18548920264
aa(lp2320
I2319
aF-3691.4250219357054
aF-10712.872881719941
aa(lp2321
I2356
aF-3731.5028184834409
aF-10894.460132164408
aa(lp2322
I2383
aF-3755.113602622595
aF-11021.19676160392
aa(lp2323
I2413
aF-3797.9249589851297
aF-11168.563341000294
aa(lp2324
I2438
aF-3805.3333328148669
aF-11216.760446504521
aa(lp2325
I2465
aF-3826.4587790277287
aF-11286.121942657361
aa(lp2326
I2508
aF-3907.2546655210022
aF-11501.291874565541
aa(lp2327
I2544
aF-3991.948145032668
aF-11708.990559978791
aa(lp2328
I2572
aF-4039.3580068188853
aF-11802.241885859004
aa(lp2329
I2621
aF-4151.162823201922
aF-12056.48893345306
aa(lp2330
I2659
aF-4260.8929823409271
aF-12254.164536404363
aa(lp2331
I2708
aF-4396.8346931144333
aF-12518.466969304965
aa(lp2332
I2731
aF-4461.0737425223897
aF-12547.494488325503
aa(lp2333
I2780
aF-4579.2876770292751
aF-12780.464391112908
aa(lp2334
I2822
aF-4729.0276082786277
aF-12996.453051800252
aa(lp2335
I2854
aF-4843.5212313422298
aF-13130.954819905668
aa(lp2336
I2899
aF-4943.2079600126553
aF-13258.396487370956
aa(lp2337
I2919
aF-5024.7434667829039
aF-13277.999551712845
aa(lp2338
I2960
aF-5133.6083297862515
aF-13472.682113509947
aa(lp2339
I3003
aF-5261.0436972974994
aF-13622.019788207563
aa(lp2340
I3023
aF-5378.6791641642085
aF-13737.167057118309
aa(lp2341
I3059
aF-5467.8044577566998
aF-13880.765053067016
aa(lp2342
I3096
aF-5552.2560951287669
aF-13945.601321660239
aa(lp2343
I3120
aF-5627.4567294009894
aF-13988.066419025943
aa(lp2344
I3156
aF-5749.8484825451196
aF-14210.31529270375
aa(lp2345
I3181
aF-5819.3207103492641
aF-14255.830580635042
aa(lp2346
I3205
aF-5876.7101348534316
aF-14317.240294833393
aa(lp2347
I3240
aF-5950.8565311796146
aF-14430.830762352834
aa(lp2348
I3278
aF-6061.1354527285721
aF-14612.335533207046
aa(lp2349
I3298
aF-6134.5397648528997
aF-14704.635685131741
aa(lp2350
I3343
aF-6218.6097433868763
aF-14877.638504241777
aa(lp2351
I3385
aF-6311.8047823295046
aF-15036.799867779328
aa(lp2352
I3415
aF-6381.9473968329157
aF-15165.78209768359
aa(lp2353
I3436
aF-6413.327779962462
aF-15224.206234737905
aa(lp2354
I3476
aF-6502.8152206883524
aF-15447.336179600181
aa(lp2355
I3505
aF-6532.9978702742046
aF-15526.384195826071
aa(lp2356
I3553
aF-6616.299059276711
aF-15756.703271781864
aa(lp2357
I3577
aF-6616.3009902849362
aF-15806.552020016947
aa(lp2358
I3622
aF-6671.8952373459397
aF-15987.009559779699
aa(lp2359
I3662
aF-6677.1574929207127
aF-16089.139529289318
aa(lp2360
I3686
aF-6679.8743487318443
aF-16195.455248929513
aa(lp2361
I3715
aF-6724.0680334974668
aF-16378.046429591475
aa(lp2362
I3745
aF-6726.5146607898359
aF-16474.737775808775
aa(lp2363
I3765
aF-6751.4291752449035
aF-16641.086445047647
aaa(lp2364
(lp2365
I0
aF0
aF0
aa(lp2366
I49
aF22.258794503521905
aF192.79731791350656
aa(lp2367
I77
aF-39.253161380800833
aF337.22191274256983
aa(lp2368
I102
aF-63.311608540310225
aF509.47929862390077
aa(lp2369
I129
aF-87.119312091249682
aF636.11902489378565
aa(lp2370
I158
aF-117.88391316847498
aF719.18051942279328
aa(lp2371
I193
aF-141.46394622541797
aF875.98565439856031
aa(lp2372
I236
aF-164.15379611935731
aF1091.1005742740315
aa(lp2373
I275
aF-201.03330211674734
aF1234.2452731786927
aa(lp2374
I303
aF-228.73772111648643
aF1365.9107431834818
aa(lp2375
I342
aF-243.67660891647603
aF1471.8584915925387
aa(lp2376
I377
aF-249.30730151934429
aF1703.1279323373999
aa(lp2377
I416
aF-249.40160850289681
aF1903.1201922821433
aa(lp2378
I459
aF-254.44745119023051
aF2023.736374283199
aa(lp2379
I499
aF-249.30016486467551
aF2174.003968836867
aa(lp2380
I536
aF-228.35487092132951
aF2380.9825898578615
aa(lp2381
I561
aF-207.26031794546276
aF2524.4997186991213
aa(lp2382
I593
aF-179.01889624816414
aF2708.6843351373891
aa(lp2383
I622
aF-148.03790762655757
aF2860.4112314026715
aa(lp2384
I646
aF-128.30021468241728
aF2888.5506605428645
aa(lp2385
I682
aF-89.280409748032014
aF3082.5101956303793
aa(lp2386
I703
aF-54.41027747647297
aF3126.6451374002222
aa(lp2387
I751
aF-5.6248317660993052
aF3376.7289833509667
aa(lp2388
I786
aF63.125917999563683
aF3521.8919771295018
aa(lp2389
I817
aF126.38666163005206
aF3697.1050798532524
aa(lp2390
I861
aF192.2300901493922
aF3910.1830574932765
aa(lp2391
I906
aF276.85310322034422
aF4099.4898217279379
aa(lp2392
I944
aF368.10590081154601
aF4299.4866450533755
aa(lp2393
I975
aF448.83922579998386
aF4481.9813778792868
aa(lp2394
I1004
aF523.77984835776329
aF4702.7189340277273
aa(lp2395
I1039
aF595.99017918228969
aF4925.9014952804337
aa(lp2396
I1080
aF668.47286265121159
aF5071.2072911458599
aa(lp2397
I1109
aF745.88210964616508
aF5188.2338969750126
aa(lp2398
I1138
aF802.48413510211981
aF5299.5500128344274
aa(lp2399
I1187
aF868.96917612460084
aF5510.5297321817479
aa(lp2400
I1224
aF959.89815582176129
aF5722.1496522756224
aa(lp2401
I1246
aF1021.3736458392652
aF5860.7076021576031
aa(lp2402
I1273
aF1064.8424129945286
aF6022.2813886476633
aa(lp2403
I1301
aF1108.3090131802894
aF6156.5354591806863
aa(lp2404
I1341
aF1166.3087796994387
aF6434.5666428146878
aa(lp2405
I1366
aF1212.1683380298089
aF6562.1946912198046
aa(lp2406
I1406
aF1263.1973704620805
aF6867.828597115813
aa(lp2407
I1450
aF1304.089712095207
aF7057.7711230882896
aa(lp2408
I1479
aF1330.6698044484929
aF7186.6319794450847
aa(lp2409
I1528
aF1361.3611830699997
aF7432.0654897913182
aa(lp2410
I1566
aF1378.9180137024127
aF7633.9508576662283
aa(lp2411
I1591
aF1382.4370118840704
aF7775.2512644970684
aa(lp2412
I1638
aF1394.1183972696188
aF7982.9395245125361
aa(lp2413
I1673
aF1388.0455442764846
aF8200.034070962216
aa(lp2414
I1700
aF1378.8876402848898
aF8377.4325353439854
aa(lp2415
I1746
aF1381.7172283318939
aF8630.379259024774
aa(lp2416
I1783
aF1352.6800333156987
aF8823.8007426850363
aa(lp2417
I1808
aF1325.130576529416
aF8988.4755811029972
aa(lp2418
I1837
aF1310.365362515927
aF9152.9702649608189
aa(lp2419
I1868
aF1280.9186599833554
aF9254.3726511087134
aa(lp2420
I1900
aF1258.1501288008026
aF9455.4524843372383
aa(lp2421
I1944
aF1233.6630527011393
aF9669.1673315588614
aa(lp2422
I1987
aF1186.5658844452073
aF9863.0042272262253
aa(lp2423
I2030
aF1142.5848860602782
aF10078.087310278877
aa(lp2424
I2072
aF1106.4780052967699
aF10357.979081842466
aa(lp2425
I2093
aF1054.8175207633146
aF10475.472752759108
aa(lp2426
I2117
aF1031.8447602450779
aF10550.624167627338
aa(lp2427
I2143
aF1013.4202261729707
aF10695.439546993313
aa(lp2428
I2180
aF988.1482768160663
aF10793.635105984396
aa(lp2429
I2213
aF964.01543516200275
aF11008.970961912304
aa(lp2430
I2244
aF946.90268119694326
aF11208.321124901848
aa(lp2431
I2278
aF928.90767941908268
aF11348.838353890884
aa(lp2432
I2316
aF912.8026683218161
aF11497.359865843779
aa(lp2433
I2342
aF896.04918409959123
aF11624.284634898668
aa(lp2434
I2379
aF907.39198649885839
aF11876.345018317808
aa(lp2435
I2415
aF897.60266937077358
aF11962.816853228351
aa(lp2436
I2452
aF906.33281596636823
aF12149.389434106013
aa(lp2437
I2485
aF911.14802956262224
aF12246.364039517439
aa(lp2438
I2518
aF943.63501971487881
aF12526.153054518618
aa(lp2439
I2548
aF968.24209061501506
aF12689.705705608854
aa(lp2440
I2582
aF999.744107558525
aF12876.298847455699
aa(lp2441
I2623
aF1033.4414408088251
aF13024.011351051851
aa(lp2442
I2649
aF1073.9781488822687
aF13138.095144467989
aa(lp2443
I2690
aF1118.3309813565918
aF13337.846907167921
aa(lp2444
I2719
aF1176.4202258265166
aF13499.953929026244
aa(lp2445
I2762
aF1221.8922389548188
aF13618.216294991535
aa(lp2446
I2786
aF1296.1264942975686
aF13805.747809383029
aa(lp2447
I2822
aF1341.2876141734873
aF13921.145065090719
aa(lp2448
I2863
aF1418.422750691185
aF14150.934641652284
aa(lp2449
I2883
aF1489.3007855872038
aF14236.191166501207
aa(lp2450
I2907
aF1537.8405181362036
aF14389.918015961088
aa(lp2451
I2936
aF1594.8146492625763
aF14557.734799571183
aa(lp2452
I2965
aF1663.8936112164852
aF14756.938083222087
aa(lp2453
I3009
aF1736.0130124684497
aF14979.539524095064
aa(lp2454
I3033
aF1821.7076409233032
aF15113.813572302915
aa(lp2455
I3067
aF1876.0655294341448
aF15257.752861568537
aa(lp2456
I3107
aF1945.640442867614
aF15407.64533988328
aa(lp2457
I3135
aF2018.8759313509649
aF15531.380740936422
aa(lp2458
I3159
aF2079.8110343414742
aF15720.118615622676
aa(lp2459
I3180
aF2120.5973032071402
aF15797.170403586197
aa(lp2460
I3210
aF2170.5913163568475
aF16000.751981835101
aa(lp2461
I3240
aF2216.2995482122155
aF16090.814830898604
aa(lp2462
I3278
aF2277.5421408985412
aF16343.73173430868
aa(lp2463
I3323
aF2346.3762035706804
aF16632.94377725575
aa(lp2464
I3366
aF2414.9400200228351
aF16933.314225105663
aa(lp2465
I3403
aF2456.9733818617492
aF17093.108562005338
aa(lp2466
I3429
aF2491.2048391341154
aF17276.434135102107
aa(lp2467
I3473
aF2517.1785869158834
aF17457.473995425778
aa(lp2468
I3503
aF2527.9133796311999
aF17543.926851941185
aa(lp2469
I3548
aF2553.3236319137513
aF17808.494998204966
aa(lp2470
I3570
aF2549.2430071226054
aF17913.22904993581
aa(lp2471
I3603
aF2547.9749618994338
aF18002.041050779633
aaa(lp2472
(lp2473
I0
aF-0
aF0
aa(lp2474
I40
aF-147.94438049117002
aF72.827964111089315
aa(lp2475
I66
aF-288.10303607188945
aF71.057420798703205
aa(lp2476
I103
aF-488.26688091202385
aF124.1366827371978
aa(lp2477
I139
aF-603.43970816364174
aF117.59322950645773
aa(lp2478
I183
aF-808.39268686906621
aF159.33376439049593
aa(lp2479
I208
aF-967.62428775471187
aF169.74781863092738
aa(lp2480
I247
aF-1196.404094459936
aF246.34286266909891
aa(lp2481
I270
aF-1324.913370520984
aF257.81430791871492
aa(lp2482
I320
aF-1576.8676993940835
aF354.09859851688577
aa(lp2483
I356
aF-1832.4950367922761
aF427.60758473857197
aa(lp2484
I381
aF-2074.8345390233867
aF516.58843314701005
aa(lp2485
I423
aF-2200.8938477150878
aF561.46648918183621
aa(lp2486
I449
aF-2267.188371692137
aF572.72700306752415
aa(lp2487
I493
aF-2479.9014481807858
aF669.04900080614425
aa(lp2488
I514
aF-2634.5240005849773
aF739.58849388427211
aa(lp2489
I545
aF-2750.3553599076904
aF797.79602632280182
aa(lp2490
I570
aF-2864.3831605453292
aF860.21674173736073
aa(lp2491
I617
aF-3142.0677942325005
aF1005.8839852175073
aa(lp2492
I649
aF-3285.3616894904217
aF1102.496510149625
aa(lp2493
I670
aF-3369.6511218932924
aF1168.368267670362
aa(lp2494
I701
aF-3509.2781523157587
aF1255.8812382547658
aa(lp2495
I729
aF-3592.9853618300099
aF1328.6326403239161
aa(lp2496
I768
aF-3738.5940094195607
aF1432.4926324005407
aa(lp2497
I799
aF-3873.1411033943491
aF1548.8856135771764
aa(lp2498
I833
aF-3976.5830770227362
aF1643.6456121106576
aa(lp2499
I875
aF-4114.7737423220624
aF1763.2484602684731
aa(lp2500
I910
aF-4257.875036462533
aF1901.5733551502831
aa(lp2501
I932
aF-4348.6049833704228
aF2005.5082009430203
aa(lp2502
I972
aF-4466.1602693946961
aF2101.5383957262716
aa(lp2503
I999
aF-4493.1846063942367
aF2185.3124470315661
aa(lp2504
I1034
aF-4675.8169666079793
aF2323.0971239311139
aa(lp2505
I1058
aF-4790.4430277616457
aF2441.3051413775906
aa(lp2506
I1081
aF-4875.2685250989525
aF2524.8765255345024
aa(lp2507
I1113
aF-5037.9723692570406
aF2644.3616853255389
aa(lp2508
I1146
aF-5125.4673760956675
aF2740.7286211954302
aa(lp2509
I1193
aF-5260.2874083587412
aF2859.688769327166
aa(lp2510
I1225
aF-5326.5679473988066
aF2961.9438674249186
aa(lp2511
I1269
aF-5528.2175463764215
aF3104.3586903114765
aa(lp2512
I1305
aF-5661.1922433640675
aF3222.5811499493047
aa(lp2513
I1327
aF-5773.6661202724845
aF3314.8121894269607
aa(lp2514
I1373
aF-5881.684257815914
aF3387.4894595399264
aa(lp2515
I1410
aF-6038.4081653450812
aF3497.5259518325847
aa(lp2516
I1458
aF-6249.8309026680299
aF3619.9262161444544
aa(lp2517
I1507
aF-6556.9835903246476
aF3783.6561582492991
aa(lp2518
I1553
aF-6782.9494226988418
aF3894.3222126263263
aa(lp2519
I1578
aF-6913.3850290265891
aF3945.72322926987
aa(lp2520
I1602
aF-7065.3802959835775
aF4008.6871751030017
aa(lp2521
I1637
aF-7213.0495521871899
aF4066.8350297386451
aa(lp2522
I1677
aF-7355.1002101817994
aF4110.1816588404372
aa(lp2523
I1706
aF-7559.7103843949562
aF4173.1176752774109
aa(lp2524
I1738
aF-7654.6947978640428
aF4187.8670927183321
aa(lp2525
I1772
aF-7740.9546373498179
aF4190.8747109269998
aa(lp2526
I1794
aF-7757.7997366853569
aF4152.9367111264055
aa(lp2527
I1831
aF-7985.9449465787329
aF4233.2123973954576
aa(lp2528
I1854
aF-8142.6544929664678
aF4253.2278307753168
aa(lp2529
I1895
aF-8381.9401933600075
aF4333.7460249037467
aa(lp2530
I1919
aF-8447.6213206811972
aF4297.0080462141559
aa(lp2531
I1947
aF-8586.4728685963764
aF4323.7578587395656
aa(lp2532
I1976
aF-8781.6806948958492
aF4370.6188710554397
aa(lp2533
I2004
aF-8840.0282650257432
aF4347.9557044306157
aa(lp2534
I2030
aF-8993.293659224868
aF4373.8142831002942
aa(lp2535
I2077
aF-9249.8795626474257
aF4454.4464155962769
aa(lp2536
I2102
aF-9387.092065021332
aF4441.3523265061731
aa(lp2537
I2152
aF-9607.1826150523448
aF4508.3254948640333
aa(lp2538
I2192
aF-9845.6812996802546
aF4547.4390221630083
aa(lp2539
I2224
aF-9972.9767308104492
aF4552.8265048961466
aa(lp2540
I2254
aF-10111.943120501641
aF4579.5287225690226
aa(lp2541
I2296
aF-10329.887688456078
aF4651.4575151028412
aa(lp2542
I2339
aF-10547.475288912605
aF4715.770311436394
aa(lp2543
I2374
aF-10730.458653021464
aF4770.842918162597
aa(lp2544
I2413
aF-10891.965614979652
aF4828.8932160251106
aa(lp2545
I2440
aF-11062.908772364533
aF4896.9283762563136
aa(lp2546
I2461
aF-11155.944842402772
aF4936.5106476409519
aa(lp2547
I2490
aF-11303.833289452952
aF5007.3083038848081
aa(lp2548
I2516
aF-11344.631465955892
aF5028.7174437894128
aa(lp2549
I2551
aF-11492.636828869867
aF5106.7891048349338
aa(lp2550
I2571
aF-11672.333762000058
aF5208.2081143096011
aa(lp2551
I2610
aF-11889.139957652304
aF5325.3472864502701
aa(lp2552
I2655
aF-12086.611158962665
aF5448.9588482999388
aa(lp2553
I2688
aF-12168.428017304788
aF5529.246984726763
aa(lp2554
I2728
aF-12279.34449790779
aF5619.2431158573818
aa(lp2555
I2754
aF-12362.829984288297
aF5709.4910909782593
aa(lp2556
I2775
aF-12561.430556340914
aF5842.5244541407192
aa(lp2557
I2809
aF-12782.998449093257
aF5981.7974531494274
aa(lp2558
I2850
aF-12993.428172775237
aF6137.1665428103352
aa(lp2559
I2879
aF-13111.562078781644
aF6261.7361559466808
aa(lp2560
I2904
aF-13133.42316304733
aF6321.5222895829811
aa(lp2561
I2945
aF-13293.329511158816
aF6443.4985679649326
aa(lp2562
I2985
aF-13378.062405622537
aF6557.4026286251128
aa(lp2563
I3017
aF-13457.643906102581
aF6667.4812939423355
aa(lp2564
I3052
aF-13614.959592068259
aF6801.2018016411694
aa(lp2565
I3079
aF-13748.560898176313
aF6927.3287506368524
aa(lp2566
I3107
aF-13773.425568148381
aF6984.8197938996527
aa(lp2567
I3146
aF-13984.554903209033
aF7134.0787729696403
aa(lp2568
I3177
aF-14035.394789614444
aF7218.857499760742
aa(lp2569
I3219
aF-14202.677242782229
aF7345.3421699259043
aa(lp2570
I3265
aF-14310.97000369293
aF7452.8823056515757
aa(lp2571
I3306
aF-14499.731887622687
aF7596.8116375095151
aa(lp2572
I3339
aF-14630.281188367186
aF7698.2881010715319
aa(lp2573
I3371
aF-14846.878553087841
aF7828.7563413664593
aa(lp2574
I3412
aF-15102.851713318252
aF7972.4115162718381
aa(lp2575
I3438
aF-15169.677681564253
aF8019.7536271187846
aa(lp2576
I3465
aF-15317.417072335274
aF8096.7838050181062
aa(lp2577
I3504
aF-15429.472802875896
aF8152.3811388432878
aa(lp2578
I3525
aF-15482.345668308109
aF8171.7860463694069
aa(lp2579
I3546
aF-15597.173869956698
aF8221.2256891608249
aa(lp2580
I3593
aF-15845.841444259873
aF8334.1233130820201
aa(lp2581
I3624
aF-15931.844570497706
aF8346.6103658876127
aa(lp2582
I3644
aF-16010.24646807466
aF8359.3038425761952
aa(lp2583
I3669
aF-16141.660443863988
aF8404.7983024717396
aa(lp2584
I3696
aF-16263.382578421599
aF8438.1185759409091
aa(lp2585
I3746
aF-16536.274620496108
aF8540.659541701536
aa(lp2586
I3796
aF-16774.315494923354
aF8591.3470187882376
aa(lp2587
I3818
aF-16930.475544470475
aF8593.2867941358345
aa(lp2588
I3857
aF-17076.470619763302
aF8629.9924103051162
aa(lp2589
I3879
aF-17206.85645501046
aF8629.2587222629481
aa(lp2590
I3916
aF-17434.628696901935
aF8703.617929385091
aa(lp2591
I3953
aF-17578.938801254815
aF8709.8995728095069
aa(lp2592
I3994
aF-17824.29695465972
aF8765.1424636877418
aa(lp2593
I4030
aF-18015.099160981354
aF8786.6303824579445
aa(lp2594
I4063
aF-18174.35392017788
aF8802.5256917293464
aa(lp2595
I4087
aF-18284.687877517499
aF8801.1880161316167
aaa(lp2596
(lp2597
I0
aF0
aF-0
aa(lp2598
I31
aF-170.03184667789881
aF-121.67642832691676
aa(lp2599
I64
aF-271.03412737260004
aF-254.52590110337235
aa(lp2600
I102
aF-403.43122536621473
aF-413.08823231973656
aa(lp2601
I146
aF-589.46150659106297
aF-617.95838702885226
aa(lp2602
I173
aF-610.62880052263006
aF-712.5316427090429
aa(lp2603
I222
aF-787.38673101788095
aF-885.18319135876845
aa(lp2604
I264
aF-865.81491494142313
aF-1018.7916809188763
aa(lp2605
I310
aF-996.85493005679155
aF-1171.3317112719362
aa(lp2606
I339
aF-1028.6906609687503
aF-1249.0649820838312
aa(lp2607
I363
aF-1136.8273033387309
aF-1355.5150999092825
aa(lp2608
I402
aF-1305.8235138274213
aF-1497.0248877266895
aa(lp2609
I435
aF-1417.5468620834993
aF-1603.3640551177618
aa(lp2610
I462
aF-1463.976379116624
aF-1651.8507144276791
aa(lp2611
I483
aF-1540.5371076696265
aF-1714.1758033689175
aa(lp2612
I522
aF-1722.5070635111424
aF-1847.1373730232031
aa(lp2613
I563
aF-1822.6617689927382
aF-1916.6193583876361
aa(lp2614
I610
aF-2065.0417182383108
aF-2077.6080600055748
aa(lp2615
I640
aF-2212.6161408532503
aF-2156.3996054541431
aa(lp2616
I689
aF-2448.777881930127
aF-2301.5405258731298
aa(lp2617
I720
aF-2625.0029276256346
aF-2378.0357712221476
aa(lp2618
I756
aF-2728.0417483604092
aF-2414.031005169707
aa(lp2619
I803
aF-3002.0252685691471
aF-2560.6573695550333
aa(lp2620
I826
aF-3130.8337534421398
aF-2580.2564983763059
aa(lp2621
I849
aF-3247.6247371104064
aF-2625.4426731112103
aa(lp2622
I879
aF-3394.8775471004428
aF-2690.812815251817
aa(lp2623
I907
aF-3598.4296674515208
aF-2782.2246845224317
aa(lp2624
I953
aF-3860.8046836240414
aF-2917.6343886600139
aa(lp2625
I982
aF-4025.7947227706877
aF-2947.2316510877904
aa(lp2626
I1031
aF-4246.7114987515151
aF-3048.6952863067572
aa(lp2627
I1072
aF-4472.8277948163495
aF-3114.8914690460324
aa(lp2628
I1117
aF-4678.8807696130998
aF-3183.8474439025908
aa(lp2629
I1158
aF-4843.6302156792917
aF-3218.8553253112204
aa(lp2630
I1187
aF-5066.7525936412549
aF-3307.3711443404159
aa(lp2631
I1214
aF-5202.8815788294596
aF-3357.6613001289061
aa(lp2632
I1240
aF-5394.0780993945145
aF-3453.3986594014191
aa(lp2633
I1265
aF-5471.8858806084017
aF-3472.3493768556491
aa(lp2634
I1285
aF-5552.3610659008091
aF-3497.48101088564
aa(lp2635
I1335
aF-5772.8533603069818
aF-3631.4608796576504
aa(lp2636
I1359
aF-5935.3512987420381
aF-3697.2767124974125
aa(lp2637
I1406
aF-6120.146746110895
aF-3810.1665781955571
aa(lp2638
I1436
aF-6218.6418257930463
aF-3852.4630099748028
aa(lp2639
I1482
aF-6437.322081720682
aF-3997.9143206299968
aa(lp2640
I1516
aF-6491.8108874692498
aF-4030.7732174468852
aa(lp2641
I1538
aF-6500.4915481003236
aF-4040.9119651565538
aa(lp2642
I1585
aF-6684.7391464049579
aF-4179.1177027142894
aa(lp2643
I1617
aF-6709.3059551295337
aF-4220.1470594342118
aa(lp2644
I1655
aF-6883.3752302044131
aF-4368.1501900201511
aa(lp2645
I1697
aF-7070.6531107932642
aF-4537.4847893831165
aa(lp2646
I1722
aF-7147.1474619430037
aF-4640.1149886509947
aa(lp2647
I1761
aF-7324.3739235492067
aF-4799.5272380273755
aa(lp2648
I1802
aF-7471.445534039286
aF-4961.1108626218083
aa(lp2649
I1832
aF-7574.3925724830024
aF-5100.3882931270864
aa(lp2650
I1861
aF-7710.8020169940191
aF-5249.5239880969821
aa(lp2651
I1896
aF-7832.1621517086351
aF-5388.5027990989793
aa(lp2652
I1932
aF-7952.4180719981732
aF-5539.8879122461076
aa(lp2653
I1976
aF-8070.2187875903501
aF-5693.326823894432
aa(lp2654
I2013
aF-8285.4816031098981
aF-5933.2394815889675
aa(lp2655
I2033
aF-8313.0397398556161
aF-6025.1754864639561
aa(lp2656
I2061
aF-8415.4743891462222
aF-6137.1372333564177
aa(lp2657
I2085
aF-8491.5162536545413
aF-6244.8583645980243
aa(lp2658
I2115
aF-8616.3248619664937
aF-6378.8152108429276
aa(lp2659
I2142
aF-8782.5691899319318
aF-6551.8083168609528
aa(lp2660
I2187
aF-8929.6672345474472
aF-6703.6315612758472
aa(lp2661
I2223
aF-9115.284144783891
aF-6908.7539602647275
aa(lp2662
I2263
aF-9160.0067546070222
aF-6992.9691948416748
aa(lp2663
I2299
aF-9307.9280066741576
aF-7150.0705012544095
aa(lp2664
I2333
aF-9390.9467240608228
aF-7248.851337914075
aa(lp2665
I2380
aF-9641.3704189664386
aF-7458.8826564748651
aa(lp2666
I2405
aF-9775.8713130208544
aF-7586.9038007781364
aa(lp2667
I2430
aF-9802.9249134258898
aF-7617.8154658517578
aa(lp2668
I2472
aF-10029.390539269998
aF-7787.6133664383651
aa(lp2669
I2510
aF-10216.576564998992
aF-7925.8515838601579
aa(lp2670
I2535
aF-10339.555035993837
aF-8008.2783729223711
aa(lp2671
I2578
aF-10597.19657509432
aF-8184.1142172368136
aa(lp2672
I2599
aF-10730.393467624166
aF-8255.9010809961237
aa(lp2673
I2647
aF-10906.985389122676
aF-8366.8219123706822
aa(lp2674
I2683
aF-11097.140406385353
aF-8458.2938537417176
aa(lp2675
I2721
aF-11281.561743153679
aF-8548.8402280207629
aa(lp2676
I2771
aF-11502.259512905724
aF-8656.2885205579387
aa(lp2677
I2817
aF-11746.366106287891
aF-8755.2107432605208
aa(lp2678
I2857
aF-11938.193971174624
aF-8814.9335468313839
aa(lp2679
I2891
aF-12124.192684149029
aF-8875.8091987936477
aa(lp2680
I2913
aF-12159.501898932378
aF-8837.0954936656708
aa(lp2681
I2933
aF-12228.752523467187
aF-8844.35867817502
aa(lp2682
I2970
aF-12364.822755777244
aF-8902.8808897583931
aa(lp2683
I2999
aF-12589.208310692165
aF-8991.1152702028758
aa(lp2684
I3019
aF-12671.793487560761
aF-8993.6389264179179
aa(lp2685
I3069
aF-12836.898620045597
aF-9073.1127915956968
aa(lp2686
I3106
aF-13008.46328866472
aF-9101.5364244573029
aa(lp2687
I3141
aF-13149.759316643744
aF-9136.0776932577683
aa(lp2688
I3168
aF-13353.752063410375
aF-9222.563300073105
aa(lp2689
I3195
aF-13501.737302579015
aF-9285.3567332006296
aa(lp2690
I3236
aF-13642.634223380219
aF-9345.8577942240736
aa(lp2691
I3277
aF-13779.45024362945
aF-9388.5058612656558
aa(lp2692
I3304
aF-13917.020398320636
aF-9439.7247651813414
aa(lp2693
I3348
aF-14050.162497375404
aF-9508.682065567622
aa(lp2694
I3377
aF-14122.676863629667
aF-9526.3886241165419
aa(lp2695
I3420
aF-14321.276722726152
aF-9652.1543272467134
aa(lp2696
I3465
aF-14510.373551480528
aF-9772.6003997254084
aa(lp2697
I3489
aF-14572.092961854056
aF-9813.4458669992164
aa(lp2698
I3539
aF-14703.843010409129
aF-9911.1084055344709
aa(lp2699
I3582
aF-14845.571871131109
aF-10030.976275306803
aa(lp2700
I3613
aF-14955.23653550042
aF-10137.325404931671
aa(lp2701
I3639
aF-15056.194702662006
aF-10236.257242918642
aa(lp2702
I3672
aF-15212.608877909481
aF-10374.618880722719
aa(lp2703
I3722
aF-15388.036739687319
aF-10538.72081196376
aaa(lp2704
(lp2705
I0
aF-0
aF0
aa(lp2706
I34
aF-28.44410807944795
aF200.4395916485384
aa(lp2707
I81
aF-116.33338737353935
aF435.3871238245971
aa(lp2708
I121
aF-231.01430262944814
aF720.4991843409631
aa(lp2709
I156
aF-322.89937588971281
aF938.39216253337418
aa(lp2710
I200
aF-408.16177146506664
aF1180.8431341123601
aa(lp2711
I230
aF-483.41595523922467
aF1290.9543646462846
aa(lp2712
I255
aF-539.94630977759948
aF1426.1045752884011
aa(lp2713
I300
aF-596.73538703134807
aF1623.4074360046404
aa(lp2714
I341
aF-669.35415315171917
aF1811.9302641532561
aa(lp2715
I379
aF-724.82573420224389
aF1960.002326529479
aa(lp2716
I419
aF-776.60462195524735
aF2147.5479100977327
aa(lp2717
I448
aF-816.72726236525341
aF2296.1517710508738
aa(lp2718
I492
aF-862.07550975079084
aF2553.3950237823624
aa(lp2719
I516
aF-889.44735726237718
aF2709.0920342936693
aa(lp2720
I543
aF-913.85611194550825
aF2890.1949417501119
aa(lp2721
I568
aF-927.02420555937192
aF3017.966923957059
aa(lp2722
I593
aF-932.13809715497939
aF3109.5326996527961
aa(lp2723
I634
aF-955.14873814384941
aF3349.106180802421
aa(lp2724
I684
aF-961.36988671423705
aF3565.9680489984912
aa(lp2725
I711
aF-943.60205048788589
aF3725.2542621826328
aa(lp2726
I752
aF-942.76233410397163
aF3904.2321964533216
aa(lp2727
I790
aF-924.40913829990961
aF4093.8384949909673
aa(lp2728
I818
aF-896.20498003763646
aF4227.576008424362
aa(lp2729
I859
aF-885.38112029334502
aF4416.1052229303859
aa(lp2730
I880
aF-848.83640644195134
aF4571.8234976705007
aa(lp2731
I904
aF-833.73242821820349
aF4686.7947318270753
aa(lp2732
I938
aF-815.38472779256438
aF4816.9781538306997
aa(lp2733
I966
aF-773.78608510861739
aF4900.340636071568
aa(lp2734
I1000
aF-751.3463286316902
aF5057.3211375695091
aa(lp2735
I1021
aF-726.75454424210773
aF5268.9504957026556
aa(lp2736
I1048
aF-714.05988780472592
aF5416.6635109607214
aa(lp2737
I1086
aF-705.67861897666501
aF5659.8616076234948
aa(lp2738
I1124
aF-676.36931013794856
aF5869.6280607001645
aa(lp2739
I1164
aF-654.59052340804146
aF6116.3366185152527
aa(lp2740
I1210
aF-641.30863066364554
aF6420.1399027469415
aa(lp2741
I1239
aF-601.20772064181256
aF6556.144104146947
aa(lp2742
I1265
aF-584.22468818829452
aF6675.3720641051123
aa(lp2743
I1314
aF-587.21268906638556
aF6892.1516988900803
aa(lp2744
I1362
aF-582.99312506566832
aF7179.0603075532727
aa(lp2745
I1405
aF-581.41427403637613
aF7405.8705944984404
aa(lp2746
I1438
aF-581.76253203370425
aF7556.137576160022
aa(lp2747
I1467
aF-585.33749607473487
aF7651.0194167705704
aa(lp2748
I1490
aF-602.27854201964396
aF7799.566836463413
aa(lp2749
I1517
aF-608.43102857676445
aF7844.5311493336139
aa(lp2750
I1539
aF-635.49899738313457
aF8012.8511987014981
aa(lp2751
I1572
aF-678.72465596373672
aF8279.8781024164018
aa(lp2752
I1592
aF-693.35612929144872
aF8294.5589809732428
aa(lp2753
I1636
aF-727.14146776401117
aF8460.6795100706731
aa(lp2754
I1674
aF-790.67776376130428
aF8703.0060912166282
aa(lp2755
I1703
aF-841.49426326790217
aF8834.1799887427605
aa(lp2756
I1741
aF-887.54002206279438
aF8956.7264446458703
aa(lp2757
I1782
aF-967.74589488985873
aF9222.7879291449663
aa(lp2758
I1818
aF-1052.0406718437405
aF9454.8008942768574
aa(lp2759
I1859
aF-1134.6493342475492
aF9690.2311736834745
aa(lp2760
I1895
aF-1223.8642355034053
aF9897.2588830624973
aa(lp2761
I1938
aF-1318.6777282418211
aF10177.058786873002
aa(lp2762
I1984
aF-1417.1039415203959
aF10392.044704371594
aa(lp2763
I2018
aF-1520.3175039204507
aF10599.201312155514
aa(lp2764
I2059
aF-1599.9451669634202
aF10776.796670773992
aa(lp2765
I2101
aF-1681.5377837020251
aF10897.428400896169
aa(lp2766
I2121
aF-1746.7769506930599
aF10908.592008158173
aa(lp2767
I2154
aF-1798.219173722729
aF11065.802287090171
aa(lp2768
I2176
aF-1874.2531883871072
aF11277.472530714909
aa(lp2769
I2211
aF-1929.1057984038807
aF11459.532204244413
aa(lp2770
I2237
aF-1993.1008679452875
aF11607.142825758761
aa(lp2771
I2263
aF-2042.5505272277614
aF11749.631249922433
aa(lp2772
I2295
aF-2086.2991019733845
aF11870.04314215193
aa(lp2773
I2322
aF-2125.1494504576394
aF11939.316921063766
aa(lp2774
I2368
aF-2173.490269676
aF12131.825316066974
aa(lp2775
I2396
aF-2216.3341625133135
aF12235.993606282034
aa(lp2776
I2442
aF-2267.9765850199806
aF12514.772100789793
aa(lp2777
I2464
aF-2300.5008788260839
aF12664.073142008459
aa(lp2778
I2514
aF-2345.1544766378165
aF12967.320135125701
aa(lp2779
I2548
aF-2365.4804507987274
aF13149.420934374339
aa(lp2780
I2583
aF-2383.3747737625304
aF13352.91772230943
aa(lp2781
I2624
aF-2385.5499084917255
aF13489.981070001204
aa(lp2782
I2674
aF-2393.3824533402758
aF13740.003035648006
aa(lp2783
I2706
aF-2379.4809964013093
aF13951.182043766792
aa(lp2784
I2729
aF-2358.497480651869
aF14039.096405349719
aa(lp2785
I2762
aF-2339.2530327643303
aF14089.629510785722
aa(lp2786
I2805
aF-2322.5498040240109
aF14261.14329702991
aa(lp2787
I2838
aF-2282.3518083058425
aF14389.044599144474
aa(lp2788
I2868
aF-2259.6571096141224
aF14566.587129353966
aa(lp2789
I2904
aF-2228.5646215317379
aF14667.353147820751
aa(lp2790
I2953
aF-2203.9786110928958
aF14890.150977140451
aa(lp2791
I2983
aF-2147.2993925326732
aF15042.295325886742
aa(lp2792
I3016
aF-2124.5523692833726
aF15221.615832516653
aa(lp2793
I3048
aF-2107.4231811408276
aF15471.732026221162
aa(lp2794
I3082
aF-2081.1727145266182
aF15639.834953063541
aa(lp2795
I3115
aF-2064.2377521742501
aF15884.502229719386
aa(lp2796
I3138
aF-2028.3386608980047
aF15969.890765307884
aa(lp2797
I3180
aF-2041.8237106471629
aF16290.029975316906
aa(lp2798
I3205
aF-2006.5146329909653
aF16425.18035008178
aa(lp2799
I3241
aF-2001.670958633787
aF16600.642438886254
aa(lp2800
I3262
aF-1968.6534050858354
aF16641.725233038924
aa(lp2801
I3300
aF-1972.6774486313766
aF16813.207372077213
aaa(lp2802
(lp2803
I0
aF0
aF-0
aa(lp2804
I31
aF-97.249341714107487
aF-115.28508047666192
aa(lp2805
I58
aF-186.01465540186888
aF-296.90727726363428
aa(lp2806
I93
aF-305.28900799608277
aF-504.2596396526929
aa(lp2807
I127
aF-341.00526521213283
aF-630.46564931480373
aa(lp2808
I152
aF-404.49017139464274
aF-784.51752834840931
aa(lp2809
I180
aF-454.0527321915709
aF-898.98147527753747
aa(lp2810
I225
aF-607.60045069490843
aF-1140.6739816943775
aa(lp2811
I262
aF-697.72479043875092
aF-1336.225414487426
aa(lp2812
I293
aF-792.71084073500549
aF-1514.0315443818893
aa(lp2813
I316
aF-867.18295141526119
aF-1650.8539620432541
aa(lp2814
I357
aF-957.46187361232217
aF-1789.9968176391808
aa(lp2815
I405
aF-1067.4685581298172
aF-1968.8615842623494
aa(lp2816
I432
aF-1103.6968803798245
aF-2053.288143620849
aa(lp2817
I463
aF-1199.3895669214794
aF-2182.4786449181374
aa(lp2818
I505
aF-1335.6296755117296
aF-2355.1404475603949
aa(lp2819
I534
aF-1398.06905355254
aF-2432.2853596072828
aa(lp2820
I554
aF-1478.6796508902848
aF-2521.9260989340596
aa(lp2821
I588
aF-1602.0055627350025
aF-2660.2207182074326
aa(lp2822
I633
aF-1758.0621575690384
aF-2824.7304366964472
aa(lp2823
I681
aF-1895.3911138800324
aF-2947.13889617717
aa(lp2824
I704
aF-2012.2927122169253
aF-3026.8562084883538
aa(lp2825
I749
aF-2168.2796891863686
aF-3178.1726123897824
aa(lp2826
I798
aF-2351.6861035354486
aF-3320.6192108119467
aa(lp2827
I842
aF-2607.6895471755647
aF-3530.1088729486064
aa(lp2828
I890
aF-2800.6684935132816
aF-3665.3267048464368
aa(lp2829
I913
aF-2903.6254307246609
aF-3677.6783710098985
aa(lp2830
I934
aF-2934.4856074964719
aF-3659.58974593736
aa(lp2831
I969
aF-3083.6050808369027
aF-3785.5928939952846
aa(lp2832
I1012
aF-3269.0320225424484
aF-3919.6109466874473
aa(lp2833
I1034
aF-3400.8001729219941
aF-3969.7673748531097
aa(lp2834
I1076
aF-3568.89719039495
aF-4115.1038097511755
aa(lp2835
I1124
aF-3790.7349026534462
aF-4276.9100179764719
aa(lp2836
I1171
aF-4061.246143507843
aF-4486.804503381587
aa(lp2837
I1214
aF-4232.1041330897851
aF-4588.2523524856952
aa(lp2838
I1259
aF-4479.0913177162829
aF-4796.8897155685099
aa(lp2839
I1295
aF-4617.0895028253126
aF-4882.7081291286668
aa(lp2840
I1343
aF-4788.9221938108776
aF-5032.8328308153468
aa(lp2841
I1390
aF-4980.0411989484373
aF-5201.2127086512828
aa(lp2842
I1434
aF-5097.8463642508241
aF-5299.7448168265537
aa(lp2843
I1478
aF-5308.3266386354044
aF-5525.8059431547581
aa(lp2844
I1501
aF-5373.2192046843611
aF-5594.299502191695
aa(lp2845
I1524
aF-5463.7851226620041
aF-5703.2981868051775
aa(lp2846
I1546
aF-5499.0311399496604
aF-5750.8630091949844
aa(lp2847
I1567
aF-5499.6313634340004
aF-5760.9560812325917
aa(lp2848
I1594
aF-5611.4759192050178
aF-5905.9681743867504
aa(lp2849
I1614
aF-5724.6919411581357
aF-6061.0440667252205
aa(lp2850
I1653
aF-5863.3056161168379
aF-6244.2810341202185
aa(lp2851
I1684
aF-5951.121023839265
aF-6393.4209107701827
aa(lp2852
I1728
aF-6044.3383033838054
aF-6547.0266312321774
aa(lp2853
I1765
aF-6112.1690317330122
aF-6698.8274176637806
aa(lp2854
I1814
aF-6233.5888143213024
aF-6911.1519361887831
aa(lp2855
I1842
aF-6266.4378597710556
aF-7050.691868176762
aa(lp2856
I1892
aF-6398.4183213614224
aF-7268.9201790653169
aa(lp2857
I1918
aF-6422.5126325319552
aF-7413.6984452898359
aa(lp2858
I1945
aF-6442.6161419065338
aF-7500.1512381122147
aa(lp2859
I1992
aF-6590.7381821537429
aF-7741.7621461904391
aa(lp2860
I2039
aF-6659.4404738884041
aF-7939.0926817360096
aa(lp2861
I2080
aF-6758.1812530264906
aF-8171.0362145477347
aa(lp2862
I2101
aF-6752.4223203812426
aF-8261.6105146407499
aa(lp2863
I2144
aF-6891.4012244078876
aF-8474.6623675949668
aa(lp2864
I2177
aF-6947.1847896753889
aF-8635.2059353755212
aa(lp2865
I2209
aF-6998.4818742962834
aF-8763.492828147444
aa(lp2866
I2232
aF-7088.8141477407598
aF-8931.099068135587
aa(lp2867
I2262
aF-7191.9590644784821
aF-9093.5285280962999
aa(lp2868
I2299
aF-7297.236857815109
aF-9266.105606443869
aa(lp2869
I2337
aF-7353.3338969629349
aF-9383.7616306525342
aa(lp2870
I2379
aF-7457.2314224803977
aF-9549.8452875764942
aa(lp2871
I2417
aF-7593.7721576108252
aF-9747.0587515323095
aa(lp2872
I2446
aF-7649.749901595269
aF-9833.9581793249181
aa(lp2873
I2483
aF-7762.0911972156164
aF-9975.2936170330377
aa(lp2874
I2528
aF-7893.5306247271637
aF-10131.952508146782
aa(lp2875
I2562
aF-7986.6096083333196
aF-10228.867865727854
aa(lp2876
I2601
aF-8130.7464455688169
aF-10379.226718571028
aa(lp2877
I2648
aF-8331.3537774092056
aF-10582.861489681864
aa(lp2878
I2690
aF-8538.7421390556501
aF-10773.138228309346
aa(lp2879
I2716
aF-8655.8773535487144
aF-10849.989807600166
aa(lp2880
I2749
aF-8787.0767551377448
aF-10961.7913251063
aa(lp2881
I2773
aF-8895.734237388715
aF-11029.764958085416
aa(lp2882
I2799
aF-9053.7029379350734
aF-11169.392924624915
aa(lp2883
I2835
aF-9199.7711046728909
aF-11288.078585049623
aa(lp2884
I2862
aF-9326.05802188497
aF-11358.127317093391
aa(lp2885
I2911
aF-9535.2370740598781
aF-11543.693172859321
aa(lp2886
I2944
aF-9624.5959069725468
aF-11532.168809013601
aa(lp2887
I2984
aF-9805.898968357973
aF-11666.137346645091
aa(lp2888
I3020
aF-9954.6823906080426
aF-11743.851689417887
aa(lp2889
I3060
aF-10138.628556329404
aF-11873.860088827334
aa(lp2890
I3106
aF-10345.016964139511
aF-12022.970365379842
aa(lp2891
I3152
aF-10515.303152719573
aF-12119.858345260771
aa(lp2892
I3192
aF-10694.89264094614
aF-12235.171276474384
aa(lp2893
I3228
aF-10833.143282136467
aF-12321.847685796867
aa(lp2894
I3252
aF-10993.69845484942
aF-12449.857044974422
aa(lp2895
I3278
aF-11122.318763802015
aF-12564.982909906003
aa(lp2896
I3317
aF-11260.231079582432
aF-12692.099738412498
aa(lp2897
I3354
aF-11363.153958487774
aF-12768.046694397464
aa(lp2898
I3389
aF-11497.324308004221
aF-12893.384045989833
aa(lp2899
I3428
aF-11674.43251338003
aF-13080.826971477522
aa(lp2900
I3470
aF-11812.36069549184
aF-13230.340981722082
aa(lp2901
I3495
aF-11895.86439463802
aF-13327.563300332311
aa(lp2902
I3537
aF-11996.535274827951
aF-13452.422717461983
aa(lp2903
I3575
aF-12141.582947149944
aF-13644.565736559936
aa(lp2904
I3621
aF-12320.814728397474
aF-13886.838565436159
aa(lp2905
I3671
aF-12426.811875127392
aF-14062.5731288605
aa(lp2906
I3717
aF-12547.231047866351
aF-14275.952640165373
aa(lp2907
I3749
aF-12629.627289647018
aF-14452.012282351343
aa(lp2908
I3777
aF-12667.293604707023
aF-14557.863551189414
aa(lp2909
I3810
aF-12709.578552393192
aF-14665.463553968024
aa(lp2910
I3854
aF-12835.400165653833
aF-14886.408310142213
aa(lp2911
I3886
aF-12872.926267030865
aF-15032.118191476608
aa(lp2912
I3912
aF-12890.330470347479
aF-15129.29181597014
aa(lp2913
I3961
aF-13049.716183958037
aF-15381.62185091627
aa(lp2914
I3983
aF-13088.582830586292
aF-15548.444273617897
aa(lp2915
I4020
aF-13175.366224623638
aF-15705.454456549365
aa(lp2916
I4047
aF-13172.744507700269
aF-15792.294373539549
aa(lp2917
I4082
aF-13235.326589699402
aF-15930.646426173031
aa(lp2918
I4125
aF-13331.168565559608
aF-16124.725433206648
aa(lp2919
I4172
aF-13499.33533927158
aF-16417.382199761403
aa(lp2920
I4200
aF-13577.32327329379
aF-16602.888696941511
aa(lp2921
I4242
aF-13710.478169373841
aF-16810.909060083504
aa(lp2922
I4274
aF-13706.373933932502
aF-16872.883770319117
aa(lp2923
I4324
aF-13926.594098098276
aF-17177.446750594703
aa(lp2924
I4351
aF-13990.658511479787
aF-17307.353642819569
aaa(lp2925
(lp2926
I0
aF-0
aF0
aa(lp2927
I50
aF-81.028374251069579
aF196.32927493175654
aa(lp2928
I82
aF-236.18505903308221
aF364.55881658039522
aa(lp2929
I107
aF-332.567360995169
aF467.58428673563969
aa(lp2930
I132
aF-449.5006239662693
aF651.3243170167691
aa(lp2931
I160
aF-524.31332484534141
aF735.77846293777748
aa(lp2932
I180
aF-607.58785926522955
aF833.16307901833875
aa(lp2933
I211
aF-663.71586324020632
aF897.65624368981594
aa(lp2934
I245
aF-753.21325236510825
aF1009.4656921178992
aa(lp2935
I289
aF-874.2441753731955
aF1196.6739572838151
aa(lp2936
I329
aF-969.84635272078276
aF1307.2526925816683
aa(lp2937
I370
aF-1084.8649015594392
aF1493.5465517814102
aa(lp2938
I396
aF-1153.6787213187281
aF1584.6596639162242
aa(lp2939
I425
aF-1247.7720410939921
aF1775.2925114805741
aa(lp2940
I460
aF-1330.7997766275384
aF1944.8921495827699
aa(lp2941
I485
aF-1371.4018252632466
aF2019.6914699317222
aa(lp2942
I527
aF-1483.6261991178922
aF2284.6496750970696
aa(lp2943
I563
aF-1574.7426628753592
aF2512.3976713130037
aa(lp2944
I592
aF-1635.1876349021354
aF2683.3595045524007
aa(lp2945
I615
aF-1668.2770634156495
aF2795.4943446366678
aa(lp2946
I661
aF-1758.1214316680703
aF3046.0970262571477
aa(lp2947
I711
aF-1831.9269639556583
aF3310.0478811734438
aa(lp2948
I756
aF-1866.0481234607357
aF3512.5700329892907
aa(lp2949
I787
aF-1829.5424235014111
aF3553.8828254300611
aa(lp2950
I817
aF-1838.1048863006417
aF3674.6730055282105
aa(lp2951
I839
aF-1835.5428793954636
aF3772.5084176912019
aa(lp2952
I879
aF-1922.4737479566595
aF4063.402105214584
aa(lp2953
I923
aF-1947.8064299601847
aF4277.8989531779507
aa(lp2954
I972
aF-1995.3219224899731
aF4569.6135963999559
aa(lp2955
I1010
aF-1995.240357596929
aF4772.0180852817257
aa(lp2956
I1051
aF-1976.0337718383562
aF4883.899685549095
aa(lp2957
I1078
aF-1982.505045001679
aF5068.8628467068102
aa(lp2958
I1109
aF-2004.6477510690806
aF5231.7053720860158
aa(lp2959
I1141
aF-2009.2084935519947
aF5364.6665053497982
aa(lp2960
I1165
aF-1989.6875805190482
aF5438.1322605542136
aa(lp2961
I1189
aF-1994.5159117528451
aF5536.271881439121
aa(lp2962
I1237
aF-2037.8808466567434
aF5723.6801109222215
aa(lp2963
I1257
aF-2039.166250075697
aF5877.259611249925
aa(lp2964
I1288
aF-2123.8394690818413
aF6138.8591158552172
aa(lp2965
I1317
aF-2149.3836718224038
aF6280.2049997447812
aa(lp2966
I1350
aF-2239.3379815333547
aF6563.0575013267562
aa(lp2967
I1396
aF-2311.2459109167789
aF6799.3290296899258
aa(lp2968
I1416
aF-2350.5739686682437
aF6958.9199637718275
aa(lp2969
I1451
aF-2383.7174965212371
aF7058.8082375792519
aa(lp2970
I1479
aF-2439.5872294134115
aF7215.9033415157846
aa(lp2971
I1517
aF-2553.7417104646765
aF7498.2330783195912
aa(lp2972
I1552
aF-2620.7983808534373
aF7651.8587123049692
aa(lp2973
I1602
aF-2726.1921726836626
aF7882.2360400609132
aa(lp2974
I1623
aF-2771.8625568442521
aF7929.8534940754844
aa(lp2975
I1668
aF-2900.3044433104556
aF8205.3193141851807
aa(lp2976
I1704
aF-2986.4995258702183
aF8320.0896826241842
aa(lp2977
I1744
aF-3082.6417475179874
aF8461.6844780154042
aa(lp2978
I1770
aF-3183.7936597273829
aF8590.0558096426666
aa(lp2979
I1794
aF-3273.7176680150337
aF8724.3414587957668
aa(lp2980
I1834
aF-3423.604150589862
aF9005.5178767512971
aa(lp2981
I1867
aF-3535.3028264443847
aF9130.5444255350503
aa(lp2982
I1905
aF-3649.2053402508736
aF9279.4038701312129
aa(lp2983
I1939
aF-3756.0927921119196
aF9386.1211932283932
aa(lp2984
I1986
aF-3879.0531449753826
aF9544.2102522390942
aa(lp2985
I2014
aF-4004.0122701564642
aF9651.2201627747327
aa(lp2986
I2048
aF-4097.0677416351018
aF9760.3211744646287
aa(lp2987
I2078
aF-4247.2262079459006
aF9984.712224872248
aa(lp2988
I2119
aF-4365.8059320899265
aF10151.916530985067
aa(lp2989
I2148
aF-4474.1673505837389
aF10256.814200752482
aa(lp2990
I2172
aF-4540.150229582473
aF10311.019256303283
aa(lp2991
I2193
aF-4600.1097612737931
aF10373.251985605775
aa(lp2992
I2227
aF-4684.9148738777967
aF10509.747112183239
aa(lp2993
I2254
aF-4786.2664127707267
aF10651.727388434307
aa(lp2994
I2284
aF-4870.3980123119454
aF10781.13625107905
aa(lp2995
I2327
aF-4993.3680250164252
aF11005.228461777429
aa(lp2996
I2352
aF-5106.7272053639745
aF11191.554601166816
aa(lp2997
I2390
aF-5199.0101245712331
aF11373.866729211906
aa(lp2998
I2440
aF-5318.8916717588354
aF11616.479977548994
aa(lp2999
I2469
aF-5375.984147364512
aF11720.218599305736
aa(lp3000
I2508
aF-5452.632903284798
aF11900.971163928993
aa(lp3001
I2531
aF-5478.6836623519803
aF11975.003054008357
aa(lp3002
I2578
aF-5561.2842063033377
aF12190.977456722258
aa(lp3003
I2613
aF-5595.9214142978899
aF12328.519140634698
aa(lp3004
I2642
aF-5659.2976057789383
aF12539.948628749577
aa(lp3005
I2668
aF-5718.922490872772
aF12743.41655070888
aa(lp3006
I2697
aF-5752.8125965322824
aF12886.503000114759
aa(lp3007
I2732
aF-5802.7361435625226
aF13083.951301644109
aa(lp3008
I2778
aF-5853.201098190706
aF13309.537455612732
aa(lp3009
I2815
aF-5834.0296795087297
aF13415.098003506177
aa(lp3010
I2843
aF-5829.9364061334736
aF13538.807038471587
aa(lp3011
I2883
aF-5898.4326982620096
aF13811.40430998553
aa(lp3012
I2926
aF-5934.9317743677193
aF14058.570976595522
aa(lp3013
I2950
aF-5935.6780069832312
aF14236.747451457075
aa(lp3014
I2991
aF-5974.416612463433
aF14430.44331439676
aa(lp3015
I3022
aF-5984.3966570768198
aF14625.466875427997
aa(lp3016
I3060
aF-6002.5240155478577
aF14797.301652598691
aa(lp3017
I3106
aF-6013.5380187314749
aF14977.295729303774
aa(lp3018
I3142
aF-6011.2894356638435
aF15149.274945807068
aa(lp3019
I3167
aF-5975.416491066233
aF15192.675680115439
aa(lp3020
I3188
aF-5984.349456151991
aF15299.404111661614
aa(lp3021
I3226
aF-6024.2842154850068
aF15463.746183541754
aa(lp3022
I3247
aF-6017.108642224337
aF15558.6094760165
aa(lp3023
I3275
aF-6065.4183816888026
aF15731.652103717832
aa(lp3024
I3324
aF-6118.6126035151601
aF15927.959104365027
aa(lp3025
I3353
aF-6173.5036279660762
aF16157.59456973647
aa(lp3026
I3381
aF-6208.3683849870113
aF16285.668800201907
aa(lp3027
I3414
aF-6273.9565531077251
aF16476.641953388185
aa(lp3028
I3455
aF-6322.5273241230316
aF16619.097810922765
aa(lp3029
I3501
aF-6410.6229658248194
aF16843.34958436474
aa(lp3030
I3544
aF-6479.6289064338225
aF16996.135935673865
aa(lp3031
I3585
aF-6570.4354652603424
aF17177.584343227751
aa(lp3032
I3609
aF-6665.9684434000374
aF17350.355567497551
aa(lp3033
I3658
aF-6763.3855494949321
aF17542.491624241913
aa(lp3034
I3706
aF-6902.2485923778258
aF17768.71674328181
aa(lp3035
I3748
aF-7062.1746434395936
aF18023.611956348599
aa(lp3036
I3795
aF-7197.8138587371177
aF18218.683801428193
aa(lp3037
I3819
aF-7311.8979936205369
aF18329.272756174552
aa(lp3038
I3859
aF-7438.599868585221
aF18546.060553629384
aa(lp3039
I3896
aF-7542.7906940675739
aF18641.660931566184
aa(lp3040
I3930
aF-7636.4899020372795
aF18718.274790288335
aa(lp3041
I3958
aF-7739.1874985457316
aF18826.207032820817
aa(lp3042
I4008
aF-7918.6102939313769
aF19144.18005295494
aaa(lp3043
(lp3044
I0
aF0
aF0
aa(lp3045
I38
aF138.56601838881016
aF-88.726638106348105
aa(lp3046
I80
aF474.44016375075415
aF-232.1537236845129
aa(lp3047
I127
aF708.25259864507473
aF-303.94787673682077
aa(lp3048
I162
aF904.78062971363886
aF-345.820302573898
aa(lp3049
I197
aF1058.6766201275445
aF-385.12273935165706
aa(lp3050
I225
aF1236.5204574888558
aF-443.38952098687344
aa(lp3051
I255
aF1342.8437584313181
aF-470.06102105787903
aa(lp3052
I280
aF1426.9371163030303
aF-482.98230874418749
aa(lp3053
I318
aF1580.7722306134426
aF-550.36479286734038
aa(lp3054
I349
aF1685.736836504477
aF-575.9297119880323
aa(lp3055
I390
aF1825.3679367926188
aF-636.78887008124741
aa(lp3056
I424
aF1950.008151280007
aF-686.82863728073301
aa(lp3057
I458
aF2043.7048163372231
aF-729.36764917678715
aa(lp3058
I498
aF2292.3161630235513
aF-877.87975375132305
aa(lp3059
I530
aF2442.6099888768463
aF-970.39503386956017
aa(lp3060
I571
aF2594.6658300654835
aF-1071.7050287277787
aa(lp3061
I613
aF2838.6832779498864
aF-1241.930765194146
aa(lp3062
I637
aF2946.2374309642428
aF-1335.2673295119771
aa(lp3063
I670
aF3115.3443977315942
aF-1461.9838650095749
aa(lp3064
I702
aF3289.7023662867559
aF-1604.0254023642501
aa(lp3065
I748
aF3404.6236079892078
aF-1712.380486747651
aa(lp3066
I788
aF3612.6577445147818
aF-1903.9592100368454
aa(lp3067
I832
aF3738.9789284455978
aF-2042.7712480185078
aa(lp3068
I857
aF3807.2313175773743
aF-2156.7245961520389
aa(lp3069
I879
aF3905.2405017394121
aF-2261.9423183476074
aa(lp3070
I905
aF3996.1754593248806
aF-2358.7936724382562
aa(lp3071
I938
aF4090.7983419789007
aF-2466.2781126740783
aa(lp3072
I972
aF4178.5390924419389
aF-2583.4488948573703
aa(lp3073
I992
aF4202.8551774566349
aF-2662.9110409034074
aa(lp3074
I1036
aF4429.1752669826892
aF-2845.6146416927218
aa(lp3075
I1083
aF4526.0243970905922
aF-2990.4077496809127
aa(lp3076
I1107
aF4647.9649648071227
aF-3154.874588328194
aa(lp3077
I1130
aF4682.2815247821463
aF-3219.5388138917797
aa(lp3078
I1162
aF4766.4234846667741
aF-3313.1198836619055
aa(lp3079
I1212
aF4972.8189507770403
aF-3498.1467805742968
aa(lp3080
I1232
aF5086.8256727430917
aF-3647.0433981692422
aa(lp3081
I1265
aF5212.0523180561568
aF-3754.9272892585886
aa(lp3082
I1285
aF5316.8066324869596
aF-3863.9578764591843
aa(lp3083
I1308
aF5395.4734810771606
aF-3937.3187267615858
aa(lp3084
I1328
aF5515.477606973639
aF-4038.1750256947862
aa(lp3085
I1361
aF5705.9951900979604
aF-4178.8485364180287
aa(lp3086
I1397
aF5834.8860579518678
aF-4287.5200343042652
aa(lp3087
I1425
aF5943.9303626173323
aF-4378.9200272831731
aa(lp3088
I1449
aF6050.1062412690935
aF-4458.5041789882598
aa(lp3089
I1498
aF6256.9044699717915
aF-4597.1715552335563
aa(lp3090
I1542
aF6418.3056013221358
aF-4702.5636118757957
aa(lp3091
I1574
aF6577.1128115881038
aF-4793.8164017176587
aa(lp3092
I1609
aF6657.4345893365362
aF-4830.4754651986386
aa(lp3093
I1650
aF6750.3376324192914
aF-4867.0757872394079
aa(lp3094
I1672
aF6905.2106092659687
aF-4930.8690396180154
aa(lp3095
I1716
aF7068.123197948411
aF-5012.5879742238085
aa(lp3096
I1760
aF7242.5305943362846
aF-5072.0347338874108
aa(lp3097
I1807
aF7535.7920928839922
aF-5199.0771515916185
aa(lp3098
I1843
aF7650.3693250106908
aF-5199.5106784564932
aa(lp3099
I1872
aF7769.1210917949793
aF-5215.049586649222
aa(lp3100
I1913
aF8018.7394165093729
aF-5323.8176302789134
aa(lp3101
I1957
aF8255.082447704368
aF-5400.3092338290453
aa(lp3102
I1982
aF8369.6241562885516
aF-5391.2032249418307
aa(lp3103
I2017
aF8476.034223319486
aF-5412.1102203163719
aa(lp3104
I2051
aF8575.7094378727561
aF-5410.042159079102
aa(lp3105
I2071
aF8660.7853673820009
aF-5401.4647052623186
aa(lp3106
I2101
aF8895.3656034528722
aF-5515.3227009478469
aa(lp3107
I2138
aF9083.8867612901613
aF-5582.9307433271142
aa(lp3108
I2186
aF9337.4793913513113
aF-5682.7965430513887
aa(lp3109
I2208
aF9476.2823771750245
aF-5696.8107752533979
aa(lp3110
I2258
aF9702.4059095666253
aF-5810.0804895019673
aa(lp3111
I2278
aF9830.471092644766
aF-5828.0091904403644
aa(lp3112
I2298
aF9889.6463036803671
aF-5843.4922544640394
aa(lp3113
I2319
aF10028.030145005174
aF-5911.6755872909471
aa(lp3114
I2344
aF10206.838796642156
aF-6006.9453070237487
aa(lp3115
I2379
aF10446.631668867116
aF-6140.6880046975748
aa(lp3116
I2408
aF10633.247577236139
aF-6238.3159854771375
aa(lp3117
I2441
aF10805.495640045185
aF-6335.8407310548264
aa(lp3118
I2491
aF10946.119201762302
aF-6417.3986529280883
aa(lp3119
I2517
aF11043.768805506672
aF-6479.5046998069511
aa(lp3120
I2559
aF11248.84253166143
aF-6616.5273106758823
aa(lp3121
I2584
aF11341.089663912466
aF-6693.2693805695762
aa(lp3122
I2609
aF11367.102837065187
aF-6725.292688772236
aa(lp3123
I2646
aF11521.18039693327
aF-6842.8201553993704
aa(lp3124
I2674
aF11617.50340796666
aF-6938.5900936018907
aa(lp3125
I2710
aF11671.548782221087
aF-7003.6330182684596
aaa(lp3126
(lp3127
I0
aF-0
aF0
aa(lp3128
I27
aF-52.709278095666221
aF208.61758149917915
aa(lp3129
I69
aF-118.9238218092994
aF295.48091628691498
aa(lp3130
I115
aF-241.60460662135461
aF511.53838465832098
aa(lp3131
I150
aF-331.51242889441932
aF581.4952254837691
aa(lp3132
I193
aF-441.04845515775725
aF807.66174655079237
aa(lp3133
I234
aF-546.32556533651746
aF985.75155904420899
aa(lp3134
I262
aF-629.25815021063192
aF1106.9367101540445
aa(lp3135
I305
aF-714.09279142956552
aF1314.6256947435279
aa(lp3136
I334
aF-788.99558220819495
aF1438.0822373193389
aa(lp3137
I354
aF-845.64938941401056
aF1563.2549062820083
aa(lp3138
I386
aF-872.06436436068589
aF1608.2911916455951
aa(lp3139
I436
aF-963.8394437311573
aF1891.9310277814857
aa(lp3140
I478
aF-1039.6972334985985
aF2107.9445973037282
aa(lp3141
I526
aF-1083.2910008124372
aF2248.8918818144602
aa(lp3142
I551
aF-1109.5970428037131
aF2361.4565563445872
aa(lp3143
I590
aF-1150.3499168751814
aF2545.9426463301638
aa(lp3144
I634
aF-1180.0178880572594
aF2724.8263514557248
aa(lp3145
I667
aF-1214.1698528436282
aF2965.2186937042607
aa(lp3146
I714
aF-1227.1051567845896
aF3119.1234945231668
aa(lp3147
I752
aF-1228.1572025463947
aF3302.3165008708679
aa(lp3148
I793
aF-1236.9794280986271
aF3507.6501269167343
aa(lp3149
I834
aF-1256.4298276771308
aF3791.1732565946677
aa(lp3150
I859
aF-1243.3662672478267
aF3966.1069103812147
aa(lp3151
I890
aF-1235.9314138179222
aF4083.1042690027043
aa(lp3152
I930
aF-1218.5560844205968
aF4202.9014600144783
aa(lp3153
I976
aF-1222.9815305931925
aF4472.3726514086384
aa(lp3154
I1001
aF-1212.8650378302914
aF4729.1907605649185
aa(lp3155
I1051
aF-1255.6837518295231
aF5061.0459952175024
aa(lp3156
I1098
aF-1216.5062802941959
aF5227.9971562326073
aa(lp3157
I1125
aF-1204.2852644316847
aF5472.9406637226275
aa(lp3158
I1166
aF-1202.8184419653821
aF5628.9035639191443
aa(lp3159
I1192
aF-1175.2531627214814
aF5752.8142064279427
aa(lp3160
I1238
aF-1208.272857011825
aF6021.7983532773414
aa(lp3161
I1262
aF-1174.2162184976432
aF6110.3357469249167
aa(lp3162
I1285
aF-1191.4359951848448
aF6282.8579138994201
aa(lp3163
I1332
aF-1230.55023903853
aF6529.1158343916022
aa(lp3164
I1366
aF-1240.8813624251925
aF6728.7651683440772
aa(lp3165
I1400
aF-1266.9522337630044
aF6921.6571657164959
aa(lp3166
I1428
aF-1278.834430753363
aF7036.0752350834127
aa(lp3167
I1472
aF-1327.7113383220005
aF7267.6995825121594
aa(lp3168
I1521
aF-1391.3721944549325
aF7547.2963053398316
aa(lp3169
I1566
aF-1450.5866354636396
aF7765.41014246958
aa(lp3170
I1613
aF-1521.566971313581
aF7988.099812715951
aa(lp3171
I1658
aF-1599.1366801354397
aF8191.3190241291677
aa(lp3172
I1682
aF-1664.7232863183449
aF8312.5049142334683
aa(lp3173
I1702
aF-1724.9893655644119
aF8462.5724092511173
aa(lp3174
I1724
aF-1767.9340272265042
aF8551.5165806335062
aa(lp3175
I1759
aF-1812.7846019762735
aF8632.6420071387474
aa(lp3176
I1809
aF-1921.9324376362024
aF8896.7688922986581
aa(lp3177
I1831
aF-2012.5006248167035
aF8988.2292646245405
aa(lp3178
I1855
aF-2069.0436132775326
aF9085.9244739502956
aa(lp3179
I1897
aF-2168.7733896313043
aF9338.0928758167593
aa(lp3180
I1917
aF-2263.2358348268876
aF9452.4272911473308
aa(lp3181
I1948
aF-2322.1428326865152
aF9558.5906206536929
aa(lp3182
I1991
aF-2426.3695495376514
aF9771.5266856970684
aa(lp3183
I2018
aF-2538.2409427394214
aF9935.1705826703328
aa(lp3184
I2065
aF-2639.5573260059737
aF10161.63138121966
aa(lp3185
I2103
aF-2750.4210259563106
aF10302.368727357703
aa(lp3186
I2134
aF-2831.2061539915394
aF10390.359479686618
aa(lp3187
I2162
aF-2893.6886455454419
aF10457.275489830816
aa(lp3188
I2189
aF-2954.0399076220151
aF10541.491688165852
aa(lp3189
I2232
aF-3022.6179592851772
aF10672.42641354131
aa(lp3190
I2275
aF-3130.2556709330483
aF10894.769783515247
aa(lp3191
I2316
aF-3212.2302642754344
aF11043.494934978104
aa(lp3192
I2344
aF-3290.0541050778115
aF11213.018305302749
aa(lp3193
I2364
aF-3370.4161057860356
aF11454.055686007627
aa(lp3194
I2403
aF-3404.7225004871293
aF11543.951416379805
aa(lp3195
I2426
aF-3454.3689647053016
aF11673.62000678322
aa(lp3196
I2460
aF-3520.745159196344
aF11911.290993586685
aa(lp3197
I2502
aF-3572.02747097365
aF12097.128672661545
aa(lp3198
I2532
aF-3587.2550929427175
aF12169.197495850518
aa(lp3199
I2565
aF-3625.9101887098982
aF12352.823486632045
aa(lp3200
I2591
aF-3652.587730741388
aF12513.120276060254
aa(lp3201
I2629
aF-3685.2986226800149
aF12700.818678710333
aa(lp3202
I2665
aF-3693.5594893760876
aF12841.704962498514
aa(lp3203
I2692
aF-3679.5891134510789
aF12912.891490530643
aa(lp3204
I2742
aF-3695.7551227468075
aF13086.043832783176
aa(lp3205
I2778
aF-3696.8372637297516
aF13321.871241127594
aa(lp3206
I2805
aF-3665.8154303988381
aF13386.675317137826
aa(lp3207
I2831
aF-3659.9333528148704
aF13513.885696701569
aa(lp3208
I2873
aF-3671.5640423961495
aF13711.628909741114
aa(lp3209
I2907
aF-3657.5471805280054
aF13912.614606796667
aa(lp3210
I2932
aF-3647.1417124187874
aF14086.62948355257
aa(lp3211
I2964
aF-3662.5069070155728
aF14308.421940388358
aa(lp3212
I3013
aF-3693.4502357892488
aF14638.535867358407
aa(lp3213
I3043
aF-3666.1474340211935
aF14847.282873737624
aa(lp3214
I3087
aF-3686.7936898193484
aF15119.40855388968
aa(lp3215
I3122
aF-3668.2290804952681
aF15316.027765969082
aa(lp3216
I3149
aF-3648.970843100718
aF15443.74880717357
aa(lp3217
I3174
aF-3647.1255776115472
aF15585.414605362967
aaa(lp3218
(lp3219
I0
aF-0
aF0
aa(lp3220
I25
aF-88.59751769862936
aF188.46182305637925
aa(lp3221
I65
aF-189.46262831233213
aF309.59418026956598
aa(lp3222
I99
aF-289.03941905148059
aF373.40585664302432
aa(lp3223
I127
aF-394.66333320787083
aF475.26200228402564
aa(lp3224
I156
aF-501.94900800555934
aF605.46608083579076
aa(lp3225
I203
aF-671.04426512611838
aF867.52718402820494
aa(lp3226
I230
aF-772.5430413075951
aF935.67345660690876
aa(lp3227
I264
aF-882.51370106369745
aF1091.66843868201
aa(lp3228
I303
aF-1019.3852230915176
aF1292.9972937789848
aa(lp3229
I349
aF-1149.7506431223981
aF1479.9493402603885
aa(lp3230
I384
aF-1269.1062244294064
aF1646.4623866088027
aa(lp3231
I426
aF-1420.3077011386499
aF1916.6274577922568
aa(lp3232
I453
aF-1473.5886123347552
aF1986.3288570277143
aa(lp3233
I494
aF-1575.0894336873728
aF2184.973600449287
aa(lp3234
I519
aF-1601.8717750426638
aF2232.2029255478064
aa(lp3235
I556
aF-1671.7236455295226
aF2384.66338439628
aa(lp3236
I581
aF-1693.5508620842543
aF2450.4135315218155
aa(lp3237
I603
aF-1719.9294000223199
aF2528.6405869045661
aa(lp3238
I633
aF-1821.5080592804309
aF2770.0986491821004
aa(lp3239
I676
aF-1921.3999672753243
aF3025.8960624768988
aa(lp3240
I701
aF-1938.7377012472484
aF3141.5996685603222
aa(lp3241
I725
aF-2000.5606849065982
aF3327.4919548539137
aa(lp3242
I746
aF-2040.324852715738
aF3469.8167570767941
aa(lp3243
I780
aF-2088.7642464956652
aF3627.5544676317909
aa(lp3244
I821
aF-2128.9568837221136
aF3809.2215641736761
aa(lp3245
I865
aF-2151.8963098444465
aF3985.0743309942322
aa(lp3246
I898
aF-2171.017642167385
aF4173.2476207273075
aa(lp3247
I921
aF-2196.9045915211946
aF4344.8201231047515
aa(lp3248
I965
aF-2242.4959066840383
aF4525.2212145135518
aa(lp3249
I1009
aF-2279.2371099250608
aF4766.2350295071583
aa(lp3250
I1045
aF-2256.2531834762021
aF4881.8109919547514
aa(lp3251
I1073
aF-2271.3577377278057
aF5047.449201272555
aa(lp3252
I1104
aF-2251.2644172009163
aF5106.6778819818146
aa(lp3253
I1150
aF-2308.7973052929292
aF5338.9795888089766
aa(lp3254
I1175
aF-2298.3660714346088
aF5471.9195711104485
aa(lp3255
I1220
aF-2398.7955056125388
aF5764.8286579536698
aa(lp3256
I1259
aF-2408.076589685425
aF5916.3909027749769
aa(lp3257
I1294
aF-2486.2655501982731
aF6183.8894497232704
aa(lp3258
I1336
aF-2523.815604604436
aF6342.875268176288
aa(lp3259
I1357
aF-2521.9298709929399
aF6417.7747532578633
aa(lp3260
I1403
aF-2644.8778421702104
aF6711.7878219807308
aa(lp3261
I1440
aF-2707.5440587540738
aF6899.1257086958849
aa(lp3262
I1474
aF-2769.5891561079088
aF7056.9075817025341
aa(lp3263
I1516
aF-2824.7176217726615
aF7183.6519518584355
aa(lp3264
I1565
aF-2917.6943002329544
aF7374.155505225368
aa(lp3265
I1606
aF-3001.6966416605242
aF7518.0475247544655
aa(lp3266
I1648
aF-3109.0134324968044
aF7696.0228940062307
aa(lp3267
I1687
aF-3217.011807864124
aF7855.1379754616173
aa(lp3268
I1709
aF-3320.5264419821438
aF7993.5555514549706
aa(lp3269
I1758
aF-3446.8939036554134
aF8209.8244242551627
aa(lp3270
I1788
aF-3587.6336994827589
aF8377.1380068880044
aa(lp3271
I1811
aF-3680.0713356923402
aF8483.7548926092059
aa(lp3272
I1847
aF-3786.2856971646706
aF8636.5893400962395
aa(lp3273
I1892
aF-3956.8152543224551
aF8878.8033706285933
aa(lp3274
I1931
aF-4129.5648372115047
aF9087.2784521225967
aa(lp3275
I1956
aF-4268.6432459467696
aF9240.187399335895
aa(lp3276
I1978
aF-4341.9996778751201
aF9303.1681745590031
aa(lp3277
I2015
aF-4460.1080528821158
aF9472.1407660988116
aa(lp3278
I2055
aF-4637.4676194909116
aF9711.436916758832
aa(lp3279
I2087
aF-4749.3329176158695
aF9802.674184215075
aa(lp3280
I2118
aF-4799.8205189263044
aF9796.0793131860719
aa(lp3281
I2141
aF-4846.910556418844
aF9789.9000775215627
aa(lp3282
I2191
aF-4971.9555102031964
aF9980.203947091235
aa(lp3283
I2213
aF-5087.1416441186202
aF10072.22422801561
aa(lp3284
I2243
aF-5169.9462006779449
aF10186.828613219199
aa(lp3285
I2264
aF-5274.662327994376
aF10332.124982431766
aa(lp3286
I2288
aF-5369.0344160717877
aF10483.428718221503
aa(lp3287
I2318
aF-5438.115354645196
aF10579.009856949802
aa(lp3288
I2365
aF-5532.5663765252984
aF10723.858909707234
aa(lp3289
I2398
aF-5615.4481402763377
aF10831.634888286506
aa(lp3290
I2436
aF-5730.2948704610062
aF11042.61219901784
aa(lp3291
I2477
aF-5837.6814570879696
aF11248.346828435648
aa(lp3292
I2510
aF-5921.5779946365556
aF11421.491601493793
aa(lp3293
I2549
aF-6014.406969851294
aF11629.19367140308
aa(lp3294
I2574
aF-6053.9016733677327
aF11741.838628983978
aa(lp3295
I2605
aF-6113.3671611772324
aF11895.920146452023
aa(lp3296
I2628
aF-6166.8717217457042
aF12053.661050469624
aa(lp3297
I2660
aF-6241.1503602706052
aF12250.974642412992
aa(lp3298
I2701
aF-6323.7096061496313
aF12490.368792404463
aa(lp3299
I2745
aF-6389.3539986375608
aF12726.179288441608
aa(lp3300
I2778
aF-6406.4389604326043
aF12882.050032550567
aa(lp3301
I2819
aF-6437.0470746908368
aF13046.525322532307
aa(lp3302
I2857
aF-6459.4128261634423
aF13227.348538477785
aa(lp3303
I2891
aF-6506.6510811804983
aF13459.171209167289
aa(lp3304
I2912
aF-6523.1428857200744
aF13616.551184344369
aa(lp3305
I2940
aF-6570.1490333391657
aF13793.687250055556
aa(lp3306
I2975
aF-6610.5441515305611
aF13983.68120688761
aa(lp3307
I3004
aF-6596.7437436204336
aF14085.182861077557
aa(lp3308
I3026
aF-6607.1658315248405
aF14215.351327800301
aa(lp3309
I3062
aF-6618.5731446809996
aF14320.682476635959
aa(lp3310
I3106
aF-6631.4554859570362
aF14478.001794426607
aa(lp3311
I3139
aF-6646.0928295900903
aF14661.135562134643
aa(lp3312
I3188
aF-6674.2930966121039
aF14828.544785120439
aa(lp3313
I3209
aF-6706.953981391307
aF15044.356106375029
aa(lp3314
I3250
aF-6781.5091650360391
aF15260.076160323946
aa(lp3315
I3287
aF-6794.7818623813155
aF15388.883105616183
aa(lp3316
I3312
aF-6808.447359302354
aF15495.101518612542
aa(lp3317
I3344
aF-6856.6337277791563
aF15641.847255849883
aa(lp3318
I3369
aF-6892.4680528568815
aF15764.914678732974
aa(lp3319
I3408
aF-7014.9124637012192
aF16054.030917030448
aa(lp3320
I3455
aF-7111.9667213902012
aF16290.824888969886
aa(lp3321
I3481
aF-7142.3476714190447
aF16368.221876206799
aa(lp3322
I3501
aF-7173.2266436671516
aF16429.686681834719
aa(lp3323
I3544
aF-7290.3011180697231
aF16670.019374187283
aa(lp3324
I3577
aF-7381.2874002039662
aF16828.973211918885
aa(lp3325
I3609
aF-7473.075524908405
aF16983.321947808519
aa(lp3326
I3633
aF-7539.2267283028068
aF17072.928857263672
aa(lp3327
I3657
aF-7608.8112804438842
aF17175.536882101926
aa(lp3328
I3703
aF-7733.4572072638412
aF17389.492943030349
aa(lp3329
I3731
aF-7859.2388643370095
aF17543.913146607119
aa(lp3330
I3770
aF-7957.6320275662629
aF17675.519139920827
aa(lp3331
I3798
aF-8080.9288665343111
aF17819.821585169175
aa(lp3332
I3833
aF-8207.4253634218403
aF17998.109675960513
aa(lp3333
I3859
aF-8304.2269961361926
aF18084.598791358203
aa(lp3334
I3883
aF-8366.3800084950435
aF18124.63674707981
aa(lp3335
I3909
aF-8455.8911025979487
aF18227.952970852897
aa(lp3336
I3932
aF-8569.9109002318055
aF18374.576615760456
aa(lp3337
I3982
aF-8699.2455041928733
aF18563.996364176728
aa(lp3338
I4023
aF-8846.2932144973711
aF18690.021567835844
aa(lp3339
I4054
aF-8963.8740084227102
aF18789.180067421788
aa(lp3340
I4083
aF-9066.3747920237001
aF18896.087833089765
aa(lp3341
I4128
aF-9196.7690590354705
aF19072.910426379312
aa(lp3342
I4165
aF-9339.9672058535489
aF19230.057933993838
aa(lp3343
I4197
aF-9498.2476849834184
aF19455.16069964652
aa(lp3344
I4241
aF-9672.2689656081839
aF19737.144381221842
aa(lp3345
I4273
aF-9762.7401601964011
aF19822.677464328252
aa(lp3346
I4322
aF-9897.8825117034394
aF20043.901806545393
aaa.